
libexploit.so:     file format elf32-littlearm


Disassembly of section .plt:

00000f80 <.plt>:
     f80:	e52de004 	push	{lr}		; (str lr, [sp, #-4]!)
     f84:	e59fe004 	ldr	lr, [pc, #4]	; f90 <test-0x164>
     f88:	e08fe00e 	add	lr, pc, lr
     f8c:	e5bef008 	ldr	pc, [lr, #8]!
     f90:	00002ffc 	strdeq	r2, [r0], -ip
     f94:	e28fc600 	add	ip, pc, #0, 12
     f98:	e28cca02 	add	ip, ip, #8192	; 0x2000
     f9c:	e5bcfffc 	ldr	pc, [ip, #4092]!	; 0xffc
     fa0:	e28fc600 	add	ip, pc, #0, 12
     fa4:	e28cca02 	add	ip, ip, #8192	; 0x2000
     fa8:	e5bcfff4 	ldr	pc, [ip, #4084]!	; 0xff4
     fac:	e28fc600 	add	ip, pc, #0, 12
     fb0:	e28cca02 	add	ip, ip, #8192	; 0x2000
     fb4:	e5bcffec 	ldr	pc, [ip, #4076]!	; 0xfec
     fb8:	e28fc600 	add	ip, pc, #0, 12
     fbc:	e28cca02 	add	ip, ip, #8192	; 0x2000
     fc0:	e5bcffe4 	ldr	pc, [ip, #4068]!	; 0xfe4
     fc4:	e28fc600 	add	ip, pc, #0, 12
     fc8:	e28cca02 	add	ip, ip, #8192	; 0x2000
     fcc:	e5bcffdc 	ldr	pc, [ip, #4060]!	; 0xfdc
     fd0:	e28fc600 	add	ip, pc, #0, 12
     fd4:	e28cca02 	add	ip, ip, #8192	; 0x2000
     fd8:	e5bcffd4 	ldr	pc, [ip, #4052]!	; 0xfd4
     fdc:	e28fc600 	add	ip, pc, #0, 12
     fe0:	e28cca02 	add	ip, ip, #8192	; 0x2000
     fe4:	e5bcffcc 	ldr	pc, [ip, #4044]!	; 0xfcc
     fe8:	e28fc600 	add	ip, pc, #0, 12
     fec:	e28cca02 	add	ip, ip, #8192	; 0x2000
     ff0:	e5bcffc4 	ldr	pc, [ip, #4036]!	; 0xfc4
     ff4:	e28fc600 	add	ip, pc, #0, 12
     ff8:	e28cca02 	add	ip, ip, #8192	; 0x2000
     ffc:	e5bcffbc 	ldr	pc, [ip, #4028]!	; 0xfbc
    1000:	e28fc600 	add	ip, pc, #0, 12
    1004:	e28cca02 	add	ip, ip, #8192	; 0x2000
    1008:	e5bcffb4 	ldr	pc, [ip, #4020]!	; 0xfb4
    100c:	e28fc600 	add	ip, pc, #0, 12
    1010:	e28cca02 	add	ip, ip, #8192	; 0x2000
    1014:	e5bcffac 	ldr	pc, [ip, #4012]!	; 0xfac
    1018:	e28fc600 	add	ip, pc, #0, 12
    101c:	e28cca02 	add	ip, ip, #8192	; 0x2000
    1020:	e5bcffa4 	ldr	pc, [ip, #4004]!	; 0xfa4
    1024:	e28fc600 	add	ip, pc, #0, 12
    1028:	e28cca02 	add	ip, ip, #8192	; 0x2000
    102c:	e5bcff9c 	ldr	pc, [ip, #3996]!	; 0xf9c
    1030:	e28fc600 	add	ip, pc, #0, 12
    1034:	e28cca02 	add	ip, ip, #8192	; 0x2000
    1038:	e5bcff94 	ldr	pc, [ip, #3988]!	; 0xf94
    103c:	e28fc600 	add	ip, pc, #0, 12
    1040:	e28cca02 	add	ip, ip, #8192	; 0x2000
    1044:	e5bcff8c 	ldr	pc, [ip, #3980]!	; 0xf8c
    1048:	e28fc600 	add	ip, pc, #0, 12
    104c:	e28cca02 	add	ip, ip, #8192	; 0x2000
    1050:	e5bcff84 	ldr	pc, [ip, #3972]!	; 0xf84
    1054:	e28fc600 	add	ip, pc, #0, 12
    1058:	e28cca02 	add	ip, ip, #8192	; 0x2000
    105c:	e5bcff7c 	ldr	pc, [ip, #3964]!	; 0xf7c
    1060:	e28fc600 	add	ip, pc, #0, 12
    1064:	e28cca02 	add	ip, ip, #8192	; 0x2000
    1068:	e5bcff74 	ldr	pc, [ip, #3956]!	; 0xf74
    106c:	e28fc600 	add	ip, pc, #0, 12
    1070:	e28cca02 	add	ip, ip, #8192	; 0x2000
    1074:	e5bcff6c 	ldr	pc, [ip, #3948]!	; 0xf6c
    1078:	e28fc600 	add	ip, pc, #0, 12
    107c:	e28cca02 	add	ip, ip, #8192	; 0x2000
    1080:	e5bcff64 	ldr	pc, [ip, #3940]!	; 0xf64
    1084:	e28fc600 	add	ip, pc, #0, 12
    1088:	e28cca02 	add	ip, ip, #8192	; 0x2000
    108c:	e5bcff5c 	ldr	pc, [ip, #3932]!	; 0xf5c
    1090:	e28fc600 	add	ip, pc, #0, 12
    1094:	e28cca02 	add	ip, ip, #8192	; 0x2000
    1098:	e5bcff54 	ldr	pc, [ip, #3924]!	; 0xf54
    109c:	e28fc600 	add	ip, pc, #0, 12
    10a0:	e28cca02 	add	ip, ip, #8192	; 0x2000
    10a4:	e5bcff4c 	ldr	pc, [ip, #3916]!	; 0xf4c
    10a8:	e28fc600 	add	ip, pc, #0, 12
    10ac:	e28cca02 	add	ip, ip, #8192	; 0x2000
    10b0:	e5bcff44 	ldr	pc, [ip, #3908]!	; 0xf44
    10b4:	e28fc600 	add	ip, pc, #0, 12
    10b8:	e28cca02 	add	ip, ip, #8192	; 0x2000
    10bc:	e5bcff3c 	ldr	pc, [ip, #3900]!	; 0xf3c
    10c0:	e28fc600 	add	ip, pc, #0, 12
    10c4:	e28cca02 	add	ip, ip, #8192	; 0x2000
    10c8:	e5bcff34 	ldr	pc, [ip, #3892]!	; 0xf34

Disassembly of section .text:

000010d0 <test-0x24>:
    10d0:	e59f2008 	ldr	r2, [pc, #8]	; 10e0 <test-0x14>
    10d4:	e3a01000 	mov	r1, #0
    10d8:	e08f2002 	add	r2, pc, r2
    10dc:	eaffffac 	b	f94 <test-0x160>
    10e0:	00002f20 	andeq	r2, r0, r0, lsr #30
    10e4:	e59f0004 	ldr	r0, [pc, #4]	; 10f0 <test-0x4>
    10e8:	e08f0000 	add	r0, pc, r0
    10ec:	eaffffab 	b	fa0 <test-0x154>
    10f0:	00002f10 	andeq	r2, r0, r0, lsl pc

000010f4 <test>:
    10f4:	b570      	push	{r4, r5, r6, lr}
    10f6:	466a      	mov	r2, sp
    10f8:	0b53      	lsrs	r3, r2, #13
    10fa:	035b      	lsls	r3, r3, #13
    10fc:	68dc      	ldr	r4, [r3, #12]
    10fe:	2580      	movs	r5, #128	; 0x80
    1100:	00ad      	lsls	r5, r5, #2
    1102:	5960      	ldr	r0, [r4, r5]
    1104:	2620      	movs	r6, #32
    1106:	1c32      	adds	r2, r6, #0
    1108:	2100      	movs	r1, #0
    110a:	3004      	adds	r0, #4
    110c:	f7ff ef4e 	blx	fac <test-0x148>
    1110:	5960      	ldr	r0, [r4, r5]
    1112:	1c32      	adds	r2, r6, #0
    1114:	21ff      	movs	r1, #255	; 0xff
    1116:	3028      	adds	r0, #40	; 0x28
    1118:	f7ff ef48 	blx	fac <test-0x148>
    111c:	4a03      	ldr	r2, [pc, #12]	; (112c <test+0x38>)
    111e:	4b04      	ldr	r3, [pc, #16]	; (1130 <test+0x3c>)
    1120:	601a      	str	r2, [r3, #0]
    1122:	4a04      	ldr	r2, [pc, #16]	; (1134 <test+0x40>)
    1124:	4b04      	ldr	r3, [pc, #16]	; (1138 <test+0x44>)
    1126:	601a      	str	r2, [r3, #0]
    1128:	bd70      	pop	{r4, r5, r6, pc}
    112a:	46c0      	nop			; (mov r8, r8)
    112c:	000d      	movs	r5, r1
    112e:	ea00 18f8 	and.w	r8, r0, r8, ror #7
    1132:	c001      	stmia	r0!, {r0}
    1134:	0000      	movs	r0, r0
    1136:	e3a0      	b.n	187a <_Unwind_VRS_Set+0x66>
    1138:	5c9c      	ldrb	r4, [r3, r2]
    113a:	c008      	stmia	r0!, {r3}

0000113c <hexdump>:
    113c:	b5f8      	push	{r3, r4, r5, r6, r7, lr}
    113e:	4d0c      	ldr	r5, [pc, #48]	; (1170 <hexdump+0x34>)
    1140:	1c06      	adds	r6, r0, #0
    1142:	1c0f      	adds	r7, r1, #0
    1144:	2400      	movs	r4, #0
    1146:	447d      	add	r5, pc
    1148:	e00b      	b.n	1162 <hexdump+0x26>
    114a:	0723      	lsls	r3, r4, #28
    114c:	d104      	bne.n	1158 <hexdump+0x1c>
    114e:	2c00      	cmp	r4, #0
    1150:	d002      	beq.n	1158 <hexdump+0x1c>
    1152:	200a      	movs	r0, #10
    1154:	f7ff ef30 	blx	fb8 <test-0x13c>
    1158:	5d31      	ldrb	r1, [r6, r4]
    115a:	1c28      	adds	r0, r5, #0
    115c:	f7ff ef32 	blx	fc4 <test-0x130>
    1160:	3401      	adds	r4, #1
    1162:	42bc      	cmp	r4, r7
    1164:	dbf1      	blt.n	114a <hexdump+0xe>
    1166:	200a      	movs	r0, #10
    1168:	f7ff ef26 	blx	fb8 <test-0x13c>
    116c:	bdf8      	pop	{r3, r4, r5, r6, r7, pc}
    116e:	46c0      	nop			; (mov r8, r8)
    1170:	17c2      	asrs	r2, r0, #31
    1172:	0000      	movs	r0, r0
    1174:	0000      	movs	r0, r0
	...

00001178 <ex>:
    1178:	b510      	push	{r4, lr}
    117a:	4c15      	ldr	r4, [pc, #84]	; (11d0 <ex+0x58>)
    117c:	b096      	sub	sp, #88	; 0x58
    117e:	0880      	lsrs	r0, r0, #2
    1180:	1a24      	subs	r4, r4, r0
    1182:	2100      	movs	r1, #0
    1184:	a802      	add	r0, sp, #8
    1186:	2250      	movs	r2, #80	; 0x50
    1188:	f7ff ef10 	blx	fac <test-0x148>
    118c:	4b0d      	ldr	r3, [pc, #52]	; (11c4 <ex+0x4c>)
    118e:	4a0c      	ldr	r2, [pc, #48]	; (11c0 <ex+0x48>)
    1190:	4264      	negs	r4, r4
    1192:	9202      	str	r2, [sp, #8]
    1194:	9303      	str	r3, [sp, #12]
    1196:	4a0c      	ldr	r2, [pc, #48]	; (11c8 <ex+0x50>)
    1198:	4b0c      	ldr	r3, [pc, #48]	; (11cc <ex+0x54>)
    119a:	20b6      	movs	r0, #182	; 0xb6
    119c:	920c      	str	r2, [sp, #48]	; 0x30
    119e:	930d      	str	r3, [sp, #52]	; 0x34
    11a0:	2301      	movs	r3, #1
    11a2:	9404      	str	r4, [sp, #16]
    11a4:	425b      	negs	r3, r3
    11a6:	2200      	movs	r2, #0
    11a8:	a902      	add	r1, sp, #8
    11aa:	17e4      	asrs	r4, r4, #31
    11ac:	0040      	lsls	r0, r0, #1
    11ae:	9405      	str	r4, [sp, #20]
    11b0:	9300      	str	r3, [sp, #0]
    11b2:	9201      	str	r2, [sp, #4]
    11b4:	f7ff ef0c 	blx	fd0 <test-0x124>
    11b8:	b016      	add	sp, #88	; 0x58
    11ba:	bd10      	pop	{r4, pc}
    11bc:	46c0      	nop			; (mov r8, r8)
    11be:	46c0      	nop			; (mov r8, r8)
    11c0:	0001      	movs	r1, r0
    11c2:	0000      	movs	r0, r0
    11c4:	0048      	lsls	r0, r1, #1
    11c6:	0000      	movs	r0, r0
    11c8:	0300      	lsls	r0, r0, #12
    11ca:	0000      	movs	r0, r0
    11cc:	0000      	movs	r0, r0
    11ce:	0000      	movs	r0, r0
    11d0:	8d95      	ldrh	r5, [r2, #44]	; 0x2c
    11d2:	3044      	adds	r0, #68	; 0x44
    11d4:	46c0      	nop			; (mov r8, r8)
    11d6:	46c0      	nop			; (mov r8, r8)

000011d8 <go>:
    11d8:	b5f0      	push	{r4, r5, r6, r7, lr}
    11da:	4e53      	ldr	r6, [pc, #332]	; (1328 <go+0x150>)
    11dc:	2180      	movs	r1, #128	; 0x80
    11de:	b08d      	sub	sp, #52	; 0x34
    11e0:	2700      	movs	r7, #0
    11e2:	1c30      	adds	r0, r6, #0
    11e4:	0149      	lsls	r1, r1, #5
    11e6:	2207      	movs	r2, #7
    11e8:	2332      	movs	r3, #50	; 0x32
    11ea:	9700      	str	r7, [sp, #0]
    11ec:	9701      	str	r7, [sp, #4]
    11ee:	f7ff eef6 	blx	fdc <test-0x118>
    11f2:	4d4e      	ldr	r5, [pc, #312]	; (132c <go+0x154>)
    11f4:	1c04      	adds	r4, r0, #0
    11f6:	447d      	add	r5, pc
    11f8:	42b0      	cmp	r0, r6
    11fa:	d000      	beq.n	11fe <go+0x26>
    11fc:	e08d      	b.n	131a <go+0x142>
    11fe:	2280      	movs	r2, #128	; 0x80
    1200:	1c39      	adds	r1, r7, #0
    1202:	0152      	lsls	r2, r2, #5
    1204:	f7ff eed2 	blx	fac <test-0x148>
    1208:	1c20      	adds	r0, r4, #0
    120a:	f7ff ffb5 	bl	1178 <ex>
    120e:	6823      	ldr	r3, [r4, #0]
    1210:	42bb      	cmp	r3, r7
    1212:	d105      	bne.n	1220 <go+0x48>
    1214:	4846      	ldr	r0, [pc, #280]	; (1330 <go+0x158>)
    1216:	4478      	add	r0, pc
    1218:	f7ff eee6 	blx	fe8 <test-0x10c>
    121c:	2001      	movs	r0, #1
    121e:	e07f      	b.n	1320 <go+0x148>
    1220:	f7ff eee8 	blx	ff4 <test-0x100>
    1224:	6833      	ldr	r3, [r6, #0]
    1226:	2b00      	cmp	r3, #0
    1228:	d127      	bne.n	127a <go+0xa2>
    122a:	ac04      	add	r4, sp, #16
    122c:	af0c      	add	r7, sp, #48	; 0x30
    122e:	4841      	ldr	r0, [pc, #260]	; (1334 <go+0x15c>)
    1230:	f7ff ffa2 	bl	1178 <ex>
    1234:	c401      	stmia	r4!, {r0}
    1236:	42bc      	cmp	r4, r7
    1238:	d1f9      	bne.n	122e <go+0x56>
    123a:	9804      	ldr	r0, [sp, #16]
    123c:	f7ff eeda 	blx	ff4 <test-0x100>
    1240:	483c      	ldr	r0, [pc, #240]	; (1334 <go+0x15c>)
    1242:	f7ff ff99 	bl	1178 <ex>
    1246:	ac05      	add	r4, sp, #20
    1248:	9003      	str	r0, [sp, #12]
    124a:	cc01      	ldmia	r4!, {r0}
    124c:	f7ff eed2 	blx	ff4 <test-0x100>
    1250:	42bc      	cmp	r4, r7
    1252:	d1fa      	bne.n	124a <go+0x72>
    1254:	9803      	ldr	r0, [sp, #12]
    1256:	f7ff eece 	blx	ff4 <test-0x100>
    125a:	4837      	ldr	r0, [pc, #220]	; (1338 <go+0x160>)
    125c:	4478      	add	r0, pc
    125e:	f7ff eec4 	blx	fe8 <test-0x10c>
    1262:	4831      	ldr	r0, [pc, #196]	; (1328 <go+0x150>)
    1264:	f7ff ff88 	bl	1178 <ex>
    1268:	1c04      	adds	r4, r0, #0
    126a:	4834      	ldr	r0, [pc, #208]	; (133c <go+0x164>)
    126c:	6831      	ldr	r1, [r6, #0]
    126e:	4478      	add	r0, pc
    1270:	f7ff eea8 	blx	fc4 <test-0x130>
    1274:	1c20      	adds	r0, r4, #0
    1276:	f7ff eebe 	blx	ff4 <test-0x100>
    127a:	4b31      	ldr	r3, [pc, #196]	; (1340 <go+0x168>)
    127c:	4a31      	ldr	r2, [pc, #196]	; (1344 <go+0x16c>)
    127e:	4832      	ldr	r0, [pc, #200]	; (1348 <go+0x170>)
    1280:	58eb      	ldr	r3, [r5, r3]
    1282:	58a9      	ldr	r1, [r5, r2]
    1284:	681a      	ldr	r2, [r3, #0]
    1286:	f7ff eebc 	blx	1000 <test-0xf4>
    128a:	4b30      	ldr	r3, [pc, #192]	; (134c <go+0x174>)
    128c:	4830      	ldr	r0, [pc, #192]	; (1350 <go+0x178>)
    128e:	58ea      	ldr	r2, [r5, r3]
    1290:	4b30      	ldr	r3, [pc, #192]	; (1354 <go+0x17c>)
    1292:	601a      	str	r2, [r3, #0]
    1294:	f7ff ff70 	bl	1178 <ex>
    1298:	f7ff eeac 	blx	ff4 <test-0x100>
    129c:	2000      	movs	r0, #0
    129e:	f7ff eeb6 	blx	100c <test-0xe8>
    12a2:	2800      	cmp	r0, #0
    12a4:	d005      	beq.n	12b2 <go+0xda>
    12a6:	482c      	ldr	r0, [pc, #176]	; (1358 <go+0x180>)
    12a8:	4478      	add	r0, pc
    12aa:	f7ff eeb6 	blx	1018 <test-0xdc>
    12ae:	2002      	movs	r0, #2
    12b0:	e036      	b.n	1320 <go+0x148>
    12b2:	f7ff eeb8 	blx	1024 <test-0xd0>
    12b6:	2800      	cmp	r0, #0
    12b8:	d131      	bne.n	131e <go+0x146>
    12ba:	f7ff eeba 	blx	1030 <test-0xc4>
    12be:	2800      	cmp	r0, #0
    12c0:	d12d      	bne.n	131e <go+0x146>
    12c2:	4826      	ldr	r0, [pc, #152]	; (135c <go+0x184>)
    12c4:	4478      	add	r0, pc
    12c6:	f7ff eeba 	blx	103c <test-0xb8>
    12ca:	2800      	cmp	r0, #0
    12cc:	d005      	beq.n	12da <go+0x102>
    12ce:	4824      	ldr	r0, [pc, #144]	; (1360 <go+0x188>)
    12d0:	4478      	add	r0, pc
    12d2:	f7ff ee8a 	blx	fe8 <test-0x10c>
    12d6:	2004      	movs	r0, #4
    12d8:	e022      	b.n	1320 <go+0x148>
    12da:	4c22      	ldr	r4, [pc, #136]	; (1364 <go+0x18c>)
    12dc:	4922      	ldr	r1, [pc, #136]	; (1368 <go+0x190>)
    12de:	447c      	add	r4, pc
    12e0:	4479      	add	r1, pc
    12e2:	1c20      	adds	r0, r4, #0
    12e4:	f7ff eeb0 	blx	1048 <test-0xac>
    12e8:	4b20      	ldr	r3, [pc, #128]	; (136c <go+0x194>)
    12ea:	1c06      	adds	r6, r0, #0
    12ec:	2101      	movs	r1, #1
    12ee:	58e8      	ldr	r0, [r5, r3]
    12f0:	4b1f      	ldr	r3, [pc, #124]	; (1370 <go+0x198>)
    12f2:	58eb      	ldr	r3, [r5, r3]
    12f4:	681a      	ldr	r2, [r3, #0]
    12f6:	1c33      	adds	r3, r6, #0
    12f8:	f7ff eeac 	blx	1054 <test-0xa0>
    12fc:	1c30      	adds	r0, r6, #0
    12fe:	f7ff eeb0 	blx	1060 <test-0x94>
    1302:	1c20      	adds	r0, r4, #0
    1304:	491b      	ldr	r1, [pc, #108]	; (1374 <go+0x19c>)
    1306:	f7ff eeb2 	blx	106c <test-0x88>
    130a:	2800      	cmp	r0, #0
    130c:	d009      	beq.n	1322 <go+0x14a>
    130e:	481a      	ldr	r0, [pc, #104]	; (1378 <go+0x1a0>)
    1310:	4478      	add	r0, pc
    1312:	f7ff ee82 	blx	1018 <test-0xdc>
    1316:	2005      	movs	r0, #5
    1318:	e002      	b.n	1320 <go+0x148>
    131a:	2014      	movs	r0, #20
    131c:	e000      	b.n	1320 <go+0x148>
    131e:	2003      	movs	r0, #3
    1320:	4240      	negs	r0, r0
    1322:	b00d      	add	sp, #52	; 0x34
    1324:	bdf0      	pop	{r4, r5, r6, r7, pc}
    1326:	46c0      	nop			; (mov r8, r8)
    1328:	d000      	beq.n	132c <go+0x154>
    132a:	400e      	ands	r6, r1
    132c:	2d92      	cmp	r5, #146	; 0x92
    132e:	0000      	movs	r0, r0
    1330:	16f9      	asrs	r1, r7, #27
    1332:	0000      	movs	r0, r0
    1334:	d020      	beq.n	1378 <go+0x1a0>
    1336:	c00e      	stmia	r0!, {r1, r2, r3}
    1338:	16d2      	asrs	r2, r2, #27
    133a:	0000      	movs	r0, r0
    133c:	16cc      	asrs	r4, r1, #27
    133e:	0000      	movs	r0, r0
    1340:	ffcc ffff 			; <UNDEFINED> instruction: 0xffccffff
    1344:	ffd0 ffff 			; <UNDEFINED> instruction: 0xffd0ffff
    1348:	d09c      	beq.n	1284 <go+0xac>
    134a:	400e      	ands	r6, r1
    134c:	ffd4 ffff 			; <UNDEFINED> instruction: 0xffd4ffff
    1350:	d05c      	beq.n	140c <Java_com_geohot_activeroot_ActiveRoot_rootTheShit+0x90>
    1352:	c00e      	stmia	r0!, {r1, r2, r3}
    1354:	d098      	beq.n	1288 <go+0xb0>
    1356:	400e      	ands	r6, r1
    1358:	1696      	asrs	r6, r2, #26
    135a:	0000      	movs	r0, r0
    135c:	1681      	asrs	r1, r0, #26
    135e:	0000      	movs	r0, r0
    1360:	1691      	asrs	r1, r2, #26
    1362:	0000      	movs	r0, r0
    1364:	1695      	asrs	r5, r2, #26
    1366:	0000      	movs	r0, r0
    1368:	16a3      	asrs	r3, r4, #26
    136a:	0000      	movs	r0, r0
    136c:	ffd8 ffff 			; <UNDEFINED> instruction: 0xffd8ffff
    1370:	ffdc ffff 			; <UNDEFINED> instruction: 0xffdcffff
    1374:	0ded      	lsrs	r5, r5, #23
    1376:	0000      	movs	r0, r0
    1378:	1676      	asrs	r6, r6, #25
	...

0000137c <Java_com_geohot_activeroot_ActiveRoot_rootTheShit>:
    137c:	b530      	push	{r4, r5, lr}
    137e:	4c15      	ldr	r4, [pc, #84]	; (13d4 <Java_com_geohot_activeroot_ActiveRoot_rootTheShit+0x58>)
    1380:	b0b5      	sub	sp, #212	; 0xd4
    1382:	1c05      	adds	r5, r0, #0
    1384:	447c      	add	r4, pc
    1386:	6824      	ldr	r4, [r4, #0]
    1388:	6823      	ldr	r3, [r4, #0]
    138a:	9333      	str	r3, [sp, #204]	; 0xcc
    138c:	f7ff ff24 	bl	11d8 <go>
    1390:	1e03      	subs	r3, r0, #0
    1392:	d102      	bne.n	139a <Java_com_geohot_activeroot_ActiveRoot_rootTheShit+0x1e>
    1394:	4910      	ldr	r1, [pc, #64]	; (13d8 <Java_com_geohot_activeroot_ActiveRoot_rootTheShit+0x5c>)
    1396:	4479      	add	r1, pc
    1398:	e003      	b.n	13a2 <Java_com_geohot_activeroot_ActiveRoot_rootTheShit+0x26>
    139a:	1c5a      	adds	r2, r3, #1
    139c:	d105      	bne.n	13aa <Java_com_geohot_activeroot_ActiveRoot_rootTheShit+0x2e>
    139e:	490f      	ldr	r1, [pc, #60]	; (13dc <Java_com_geohot_activeroot_ActiveRoot_rootTheShit+0x60>)
    13a0:	4479      	add	r1, pc
    13a2:	a801      	add	r0, sp, #4
    13a4:	f7ff ee68 	blx	1078 <test-0x7c>
    13a8:	e005      	b.n	13b6 <Java_com_geohot_activeroot_ActiveRoot_rootTheShit+0x3a>
    13aa:	4a0d      	ldr	r2, [pc, #52]	; (13e0 <Java_com_geohot_activeroot_ActiveRoot_rootTheShit+0x64>)
    13ac:	a801      	add	r0, sp, #4
    13ae:	2164      	movs	r1, #100	; 0x64
    13b0:	447a      	add	r2, pc
    13b2:	f7ff ee68 	blx	1084 <test-0x70>
    13b6:	682a      	ldr	r2, [r5, #0]
    13b8:	23a7      	movs	r3, #167	; 0xa7
    13ba:	009b      	lsls	r3, r3, #2
    13bc:	58d3      	ldr	r3, [r2, r3]
    13be:	1c28      	adds	r0, r5, #0
    13c0:	a901      	add	r1, sp, #4
    13c2:	4798      	blx	r3
    13c4:	9a33      	ldr	r2, [sp, #204]	; 0xcc
    13c6:	6823      	ldr	r3, [r4, #0]
    13c8:	429a      	cmp	r2, r3
    13ca:	d001      	beq.n	13d0 <Java_com_geohot_activeroot_ActiveRoot_rootTheShit+0x54>
    13cc:	f7ff ee60 	blx	1090 <test-0x64>
    13d0:	b035      	add	sp, #212	; 0xd4
    13d2:	bd30      	pop	{r4, r5, pc}
    13d4:	2be4      	cmp	r3, #228	; 0xe4
    13d6:	0000      	movs	r0, r0
    13d8:	15f6      	asrs	r6, r6, #23
    13da:	0000      	movs	r0, r0
    13dc:	1664      	asrs	r4, r4, #25
    13de:	0000      	movs	r0, r0
    13e0:	16e2      	asrs	r2, r4, #27
    13e2:	0000      	movs	r0, r0
    13e4:	3000      	adds	r0, #0
    13e6:	e590      	b.n	f0a <test-0x1ea>
    13e8:	0101      	lsls	r1, r0, #4
    13ea:	e313      	b.n	1a14 <_Unwind_VRS_Set+0x200>
    13ec:	3102      	adds	r1, #2
    13ee:	1383      	asrs	r3, r0, #14
    13f0:	3102      	adds	r1, #2
    13f2:	03c3      	lsls	r3, r0, #15
    13f4:	0003      	movs	r3, r0
    13f6:	e080      	b.n	14fa <Java_com_geohot_activeroot_ActiveRoot_rootTheShit+0x17e>
    13f8:	ff1e e12f 	vrhadd.u16	d14, d14, d31
    13fc:	4ff0      	ldr	r7, [pc, #960]	; (17c0 <_Unwind_VRS_Get+0x18>)
    13fe:	e92d 51ac 	stmdb	sp!, {r2, r3, r5, r7, r8, ip, lr}
    1402:	e59f      	b.n	f44 <test-0x1b0>
    1404:	31ac      	adds	r1, #172	; 0xac
    1406:	e59f      	b.n	f48 <test-0x1ac>
    1408:	5005      	str	r5, [r0, r0]
    140a:	e08f      	b.n	152c <Java_com_geohot_activeroot_ActiveRoot_rootTheShit+0x1b0>
    140c:	3003      	adds	r0, #3
    140e:	e795      	b.n	133c <go+0x164>
    1410:	d014      	beq.n	143c <Java_com_geohot_activeroot_ActiveRoot_rootTheShit+0xc0>
    1412:	e24d      	b.n	18b0 <_Unwind_VRS_Set+0x9c>
    1414:	0000      	movs	r0, r0
    1416:	e353      	b.n	1ac0 <_Unwind_VRS_Set+0x2ac>
    1418:	4000      	ands	r0, r0
    141a:	e1a0      	b.n	175e <Java_com_geohot_activeroot_ActiveRoot_rootTheShit+0x3e2>
    141c:	6002      	str	r2, [r0, #0]
    141e:	e241      	b.n	18a4 <_Unwind_VRS_Set+0x90>
    1420:	0005      	movs	r5, r0
    1422:	0a00      	lsrs	r0, r0, #8
    1424:	0006      	movs	r6, r0
    1426:	e1a0      	b.n	176a <Java_com_geohot_activeroot_ActiveRoot_rootTheShit+0x3ee>
    1428:	100c      	asrs	r4, r1, #32
    142a:	e28d      	b.n	1948 <_Unwind_VRS_Set+0x134>
    142c:	ff1a ebff 			; <UNDEFINED> instruction: 0xff1aebff
    1430:	9000      	str	r0, [sp, #0]
    1432:	e250      	b.n	18d6 <_Unwind_VRS_Set+0xc2>
    1434:	0007      	movs	r7, r0
    1436:	1a00      	subs	r0, r0, r0
    1438:	0056      	lsls	r6, r2, #1
    143a:	ea00 3178 	and.w	r1, r0, r8, ror #13
    143e:	e59f      	b.n	f80 <test-0x174>
    1440:	2178      	movs	r1, #120	; 0x78
    1442:	e59f      	b.n	f84 <test-0x170>
    1444:	3003      	adds	r0, #3
    1446:	e795      	b.n	1374 <go+0x19c>
    1448:	9002      	str	r0, [sp, #8]
    144a:	e795      	b.n	1378 <go+0x1a0>
    144c:	3003      	adds	r0, #3
    144e:	e069      	b.n	1524 <Java_com_geohot_activeroot_ActiveRoot_rootTheShit+0x1a8>
    1450:	31c3      	adds	r1, #195	; 0xc3
    1452:	e1a0      	b.n	1796 <Java_com_geohot_activeroot_ActiveRoot_rootTheShit+0x41a>
    1454:	300c      	adds	r0, #12
    1456:	e58d      	b.n	f74 <test-0x180>
    1458:	300c      	adds	r0, #12
    145a:	e59d      	b.n	f98 <test-0x15c>
    145c:	0000      	movs	r0, r0
    145e:	e353      	b.n	1b08 <_Unwind_VRS_Set+0x2f4>
    1460:	0021      	movs	r1, r4
    1462:	0a00      	lsrs	r0, r0, #8
    1464:	3001      	adds	r0, #1
    1466:	e243      	b.n	18f0 <_Unwind_VRS_Set+0xdc>
    1468:	b003      	add	sp, #12
    146a:	e1a0      	b.n	17ae <_Unwind_VRS_Get+0x6>
    146c:	a000      	add	r0, pc, #0	; (adr r0, 1470 <Java_com_geohot_activeroot_ActiveRoot_rootTheShit+0xf4>)
    146e:	e3a0      	b.n	1bb2 <_Unwind_VRS_Set+0x39e>
    1470:	3004      	adds	r0, #4
    1472:	e58d      	b.n	f90 <test-0x164>
    1474:	700b      	strb	r3, [r1, #0]
    1476:	e08a      	b.n	158e <Java_com_geohot_activeroot_ActiveRoot_rootTheShit+0x212>
    1478:	7fa7      	ldrb	r7, [r4, #30]
    147a:	e087      	b.n	158c <Java_com_geohot_activeroot_ActiveRoot_rootTheShit+0x210>
    147c:	70c7      	strb	r7, [r0, #3]
    147e:	e1a0      	b.n	17c2 <_Unwind_VRS_Get+0x1a>
    1480:	8187      	strh	r7, [r0, #12]
    1482:	e089      	b.n	1598 <Java_com_geohot_activeroot_ActiveRoot_rootTheShit+0x21c>
    1484:	0008      	movs	r0, r1
    1486:	e1a0      	b.n	17ca <_Unwind_VRS_Get+0x22>
    1488:	ffd5 ebff 			; <UNDEFINED> instruction: 0xffd5ebff
    148c:	2004      	movs	r0, #4
    148e:	e59d      	b.n	fcc <test-0x128>
    1490:	0002      	movs	r2, r0
    1492:	e157      	b.n	1744 <Java_com_geohot_activeroot_ActiveRoot_rootTheShit+0x3c8>
    1494:	3000      	adds	r0, #0
    1496:	e1a0      	b.n	17da <_Unwind_VRS_Get+0x32>
    1498:	0000      	movs	r0, r0
    149a:	03e0      	lsls	r0, r4, #15
    149c:	0005      	movs	r5, r0
    149e:	0a00      	lsrs	r0, r0, #8
    14a0:	0001      	movs	r1, r0
    14a2:	e287      	b.n	19b4 <_Unwind_VRS_Set+0x1a0>
    14a4:	0180      	lsls	r0, r0, #6
    14a6:	e089      	b.n	15bc <Java_com_geohot_activeroot_ActiveRoot_rootTheShit+0x240>
    14a8:	3000      	adds	r0, #0
    14aa:	e58d      	b.n	fc8 <test-0x12c>
    14ac:	ffcc ebff 			; <UNDEFINED> instruction: 0xffccebff
    14b0:	3000      	adds	r0, #0
    14b2:	e59d      	b.n	ff0 <test-0x104>
    14b4:	0001      	movs	r1, r0
    14b6:	e240      	b.n	193a <_Unwind_VRS_Set+0x126>
    14b8:	0003      	movs	r3, r0
    14ba:	e156      	b.n	176a <Java_com_geohot_activeroot_ActiveRoot_rootTheShit+0x3ee>
    14bc:	0003      	movs	r3, r0
    14be:	2a00      	cmp	r2, #0
    14c0:	000a      	movs	r2, r1
    14c2:	e157      	b.n	1774 <Java_com_geohot_activeroot_ActiveRoot_rootTheShit+0x3f8>
    14c4:	0008      	movs	r0, r1
    14c6:	0a00      	lsrs	r0, r0, #8
    14c8:	b001      	add	sp, #4
    14ca:	e247      	b.n	195c <_Unwind_VRS_Set+0x148>
    14cc:	ffe8 eaff 			; <UNDEFINED> instruction: 0xffe8eaff
    14d0:	0000      	movs	r0, r0
    14d2:	e156      	b.n	1782 <Java_com_geohot_activeroot_ActiveRoot_rootTheShit+0x406>
    14d4:	0002      	movs	r2, r0
    14d6:	8a00      	ldrh	r0, [r0, #16]
    14d8:	0000      	movs	r0, r0
    14da:	e358      	b.n	1b8e <_Unwind_VRS_Set+0x37a>
    14dc:	0006      	movs	r6, r0
    14de:	1a00      	subs	r0, r0, r0
    14e0:	0001      	movs	r1, r0
    14e2:	ea00 a001 			; <UNDEFINED> instruction: 0xea00a001
    14e6:	e287      	b.n	19f8 <_Unwind_VRS_Set+0x1e4>
    14e8:	ffe1 eaff 			; <UNDEFINED> instruction: 0xffe1eaff
    14ec:	3000      	adds	r0, #0
    14ee:	e3a0      	b.n	1c32 <_Unwind_VRS_Pop+0x2>
    14f0:	3010      	adds	r0, #16
    14f2:	e584      	b.n	ffe <test-0xf6>
    14f4:	0009      	movs	r1, r1
    14f6:	e3a0      	b.n	1c3a <_Unwind_VRS_Pop+0xa>
    14f8:	002b      	movs	r3, r5
    14fa:	ea00 0008 	and.w	r0, r0, r8
    14fe:	e1a0      	b.n	1842 <_Unwind_VRS_Set+0x2e>
    1500:	ffb7 ebff 			; <UNDEFINED> instruction: 0xffb7ebff
    1504:	3004      	adds	r0, #4
    1506:	e598      	b.n	103a <test-0xba>
    1508:	0001      	movs	r1, r0
    150a:	e353      	b.n	1bb4 <_Unwind_VRS_Set+0x3a0>
    150c:	3000      	adds	r0, #0
    150e:	03a0      	lsls	r0, r4, #14
    1510:	3010      	adds	r0, #16
    1512:	0584      	lsls	r4, r0, #22
    1514:	0048      	lsls	r0, r1, #1
    1516:	e584      	b.n	1022 <test-0xd2>
    1518:	0005      	movs	r5, r0
    151a:	03a0      	lsls	r0, r4, #14
    151c:	0022      	movs	r2, r4
    151e:	0a00      	lsrs	r0, r0, #8
    1520:	0000      	movs	r0, r0
    1522:	e353      	b.n	1bcc <_Unwind_VRS_Set+0x3b8>
    1524:	0004      	movs	r4, r0
    1526:	e288      	b.n	1a3a <_Unwind_VRS_Set+0x226>
    1528:	004c      	lsls	r4, r1, #1
    152a:	b584      	push	{r2, r7, lr}
    152c:	3001      	adds	r0, #1
    152e:	b3a0      	cbz	r0, 159a <Java_com_geohot_activeroot_ActiveRoot_rootTheShit+0x21e>
    1530:	0002      	movs	r2, r0
    1532:	ba00      	rev	r0, r0
    1534:	ffaa ebff 			; <UNDEFINED> instruction: 0xffaaebff
    1538:	3000      	adds	r0, #0
    153a:	e3a0      	b.n	1c7e <_Unwind_VRS_Pop+0x4e>
    153c:	004c      	lsls	r4, r1, #1
    153e:	e584      	b.n	104a <test-0xaa>
    1540:	004c      	lsls	r4, r1, #1
    1542:	e594      	b.n	106e <test-0x86>
    1544:	3050      	adds	r0, #80	; 0x50
    1546:	e584      	b.n	1052 <test-0xa2>
    1548:	3000      	adds	r0, #0
    154a:	e590      	b.n	106e <test-0x86>
    154c:	0000      	movs	r0, r0
    154e:	e353      	b.n	1bf8 <_Unwind_VRS_Set+0x3e4>
    1550:	0012      	movs	r2, r2
    1552:	aa00      	add	r2, sp, #0
    1554:	3c23      	subs	r4, #35	; 0x23
    1556:	e1a0      	b.n	189a <_Unwind_VRS_Set+0x86>
    1558:	300f      	adds	r0, #15
    155a:	e213      	b.n	1984 <_Unwind_VRS_Set+0x170>
    155c:	2060      	movs	r0, #96	; 0x60
    155e:	059f      	lsls	r7, r3, #22
    1560:	0003      	movs	r3, r0
    1562:	01a0      	lsls	r0, r4, #6
    1564:	2002      	movs	r0, #2
    1566:	0795      	lsls	r5, r2, #30
    1568:	2010      	movs	r0, #16
    156a:	0584      	lsls	r4, r0, #22
    156c:	000e      	movs	r6, r1
    156e:	0a00      	lsrs	r0, r0, #8
    1570:	0001      	movs	r1, r0
    1572:	e353      	b.n	1c1c <__aeabi_unwind_cpp_pr2+0x4>
    1574:	0000      	movs	r0, r0
    1576:	e3a0      	b.n	1cba <_Unwind_VRS_Pop+0x8a>
    1578:	3048      	adds	r0, #72	; 0x48
    157a:	059f      	lsls	r7, r3, #22
    157c:	0002      	movs	r2, r0
    157e:	0a00      	lsrs	r0, r0, #8
    1580:	0002      	movs	r2, r0
    1582:	e353      	b.n	1c2c <__aeabi_unwind_cpp_pr0+0x4>
    1584:	0003      	movs	r3, r0
    1586:	1a00      	subs	r0, r0, r0
    1588:	303c      	adds	r0, #60	; 0x3c
    158a:	e59f      	b.n	10cc <test-0x28>
    158c:	3003      	adds	r0, #3
    158e:	e795      	b.n	14bc <Java_com_geohot_activeroot_ActiveRoot_rootTheShit+0x140>
    1590:	3010      	adds	r0, #16
    1592:	e584      	b.n	109e <test-0x56>
    1594:	0004      	movs	r4, r0
    1596:	ea00 0010 	and.w	r0, r0, r0, lsr #32
    159a:	e584      	b.n	10a6 <test-0x4e>
    159c:	ffd4 eaff 			; <UNDEFINED> instruction: 0xffd4eaff
    15a0:	ff8f ebff 			; <UNDEFINED> instruction: 0xff8febff
    15a4:	0010      	movs	r0, r2
    15a6:	e584      	b.n	10b2 <test-0x42>
    15a8:	0000      	movs	r0, r0
    15aa:	e3a0      	b.n	1cee <_Unwind_VRS_Pop+0xbe>
    15ac:	d014      	beq.n	15d8 <Java_com_geohot_activeroot_ActiveRoot_rootTheShit+0x25c>
    15ae:	e28d      	b.n	1acc <_Unwind_VRS_Set+0x2b8>
    15b0:	8ff0      	ldrh	r0, [r6, #62]	; 0x3e
    15b2:	e8bd 2b7c 	ldmia.w	sp!, {r2, r3, r4, r5, r6, r8, r9, fp, sp}
    15b6:	0000      	movs	r0, r0
    15b8:	ffe4 ffff 			; <UNDEFINED> instruction: 0xffe4ffff
    15bc:	ffe8 ffff 			; <UNDEFINED> instruction: 0xffe8ffff
    15c0:	ffec ffff 			; <UNDEFINED> instruction: 0xffecffff
    15c4:	fff0 ffff 			; <UNDEFINED> instruction: 0xfff0ffff
    15c8:	fff4 ffff 			; <UNDEFINED> instruction: 0xfff4ffff
    15cc:	fff8 ffff 			; <UNDEFINED> instruction: 0xfff8ffff
    15d0:	3000      	adds	r0, #0
    15d2:	e590      	b.n	10f6 <test+0x2>
    15d4:	4010      	ands	r0, r2
    15d6:	e92d 0001 	stmdb	sp!, {r0}
    15da:	e313      	b.n	1c04 <_Unwind_VRS_Set+0x3f0>
    15dc:	4000      	ands	r0, r0
    15de:	e1a0      	b.n	1922 <_Unwind_VRS_Set+0x10e>
    15e0:	0005      	movs	r5, r0
    15e2:	1a00      	subs	r0, r0, r0
    15e4:	0002      	movs	r2, r0
    15e6:	e313      	b.n	1c10 <_Unwind_VRS_Set+0x3fc>
    15e8:	0048      	lsls	r0, r1, #1
    15ea:	e280      	b.n	1aee <_Unwind_VRS_Set+0x2da>
    15ec:	0001      	movs	r1, r0
    15ee:	0a00      	lsrs	r0, r0, #8
    15f0:	02fb      	lsls	r3, r7, #11
    15f2:	eb00 0000 	add.w	r0, r0, r0
    15f6:	ea00 02f5 	and.w	r2, r0, r5, ror #3
    15fa:	eb00 3000 	add.w	r0, r0, r0, lsl #12
    15fe:	e594      	b.n	112a <test+0x36>
    1600:	0004      	movs	r4, r0
    1602:	e313      	b.n	1c2c <__aeabi_unwind_cpp_pr0+0x4>
    1604:	0001      	movs	r1, r0
    1606:	1a00      	subs	r0, r0, r0
    1608:	00d0      	lsls	r0, r2, #3
    160a:	e284      	b.n	1b16 <_Unwind_VRS_Set+0x302>
    160c:	02f8      	lsls	r0, r7, #11
    160e:	eb00 3000 	add.w	r0, r0, r0, lsl #12
    1612:	e594      	b.n	113e <hexdump+0x2>
    1614:	0008      	movs	r0, r1
    1616:	e313      	b.n	1c40 <_Unwind_VRS_Pop+0x10>
    1618:	0001      	movs	r1, r0
    161a:	1a00      	subs	r0, r0, r0
    161c:	0e1b      	lsrs	r3, r3, #24
    161e:	e284      	b.n	1b2a <_Unwind_VRS_Set+0x316>
    1620:	02f7      	lsls	r7, r6, #11
    1622:	eb00 3000 	add.w	r0, r0, r0, lsl #12
    1626:	e594      	b.n	1152 <hexdump+0x16>
    1628:	0010      	movs	r0, r2
    162a:	e313      	b.n	1c54 <_Unwind_VRS_Pop+0x24>
    162c:	8010      	strh	r0, [r2, #0]
    162e:	18bd      	adds	r5, r7, r2
    1630:	0e23      	lsrs	r3, r4, #24
    1632:	e284      	b.n	1b3e <_Unwind_VRS_Set+0x32a>
    1634:	4010      	ands	r0, r2
    1636:	e8bd 0313 	ldmia.w	sp!, {r0, r1, r4, r8, r9}
    163a:	ea00 47f0 	and.w	r7, r0, r0, ror #19
    163e:	e92d e004 	stmdb	sp!, {r2, sp, lr, pc}
    1642:	e281      	b.n	1b48 <_Unwind_VRS_Set+0x334>
    1644:	800c      	strh	r4, [r1, #0]
    1646:	e590      	b.n	116a <hexdump+0x2e>
    1648:	9018      	str	r0, [sp, #96]	; 0x60
    164a:	e590      	b.n	116e <hexdump+0x32>
    164c:	dd12      	ble.n	1674 <Java_com_geohot_activeroot_ActiveRoot_rootTheShit+0x2f8>
    164e:	e24d      	b.n	1aec <_Unwind_VRS_Set+0x2d8>
    1650:	4000      	ands	r0, r0
    1652:	e1a0      	b.n	1996 <_Unwind_VRS_Set+0x182>
    1654:	5002      	str	r2, [r0, r0]
    1656:	e1a0      	b.n	199a <_Unwind_VRS_Set+0x186>
    1658:	000f      	movs	r7, r1
    165a:	e8be d008 	ldmia.w	lr!, {r3, ip, lr, pc}
    165e:	e24d      	b.n	1afc <_Unwind_VRS_Set+0x2e8>
    1660:	c00c      	stmia	r0!, {r2, r3}
    1662:	e28d      	b.n	1b80 <_Unwind_VRS_Set+0x36c>
    1664:	000f      	movs	r7, r1
    1666:	e8ac 000f 	stmia.w	ip!, {r0, r1, r2, r3}
    166a:	e8be 000f 	ldmia.w	lr!, {r0, r1, r2, r3}
    166e:	e8ac 000f 	stmia.w	ip!, {r0, r1, r2, r3}
    1672:	e8be 000f 	ldmia.w	lr!, {r0, r1, r2, r3}
    1676:	e8ac 000f 	stmia.w	ip!, {r0, r1, r2, r3}
    167a:	e89e 7000 	ldmia.w	lr, {ip, sp, lr}
    167e:	e3a0      	b.n	1dc2 <_Unwind_VRS_Pop+0x192>
    1680:	6008      	str	r0, [r1, #0]
    1682:	e28d      	b.n	1ba0 <_Unwind_VRS_Set+0x38c>
    1684:	000f      	movs	r7, r1
    1686:	e88c 7008 	stmia.w	ip, {r3, ip, sp, lr}
    168a:	e58d      	b.n	11a8 <ex+0x30>
    168c:	0004      	movs	r4, r0
    168e:	e1a0      	b.n	19d2 <_Unwind_VRS_Set+0x1be>
    1690:	1048      	asrs	r0, r1, #1
    1692:	e59d      	b.n	11d0 <ex+0x58>
    1694:	ff58 ebff 			; <UNDEFINED> instruction: 0xff58ebff
    1698:	0000      	movs	r0, r0
    169a:	e355      	b.n	1d48 <_Unwind_VRS_Pop+0x118>
    169c:	a00a      	add	r0, pc, #40	; (adr r0, 16c8 <Java_com_geohot_activeroot_ActiveRoot_rootTheShit+0x34c>)
    169e:	13a0      	asrs	r0, r4, #14
    16a0:	a009      	add	r0, pc, #36	; (adr r0, 16c8 <Java_com_geohot_activeroot_ActiveRoot_rootTheShit+0x34c>)
    16a2:	03a0      	lsls	r0, r4, #14
    16a4:	5000      	str	r0, [r0, r0]
    16a6:	e250      	b.n	1b4a <_Unwind_VRS_Set+0x336>
    16a8:	a010      	add	r0, pc, #64	; (adr r0, 16ec <Java_com_geohot_activeroot_ActiveRoot_rootTheShit+0x370>)
    16aa:	138a      	asrs	r2, r1, #14
    16ac:	3040      	adds	r0, #64	; 0x40
    16ae:	159d      	asrs	r5, r3, #22
    16b0:	000c      	movs	r4, r1
    16b2:	1a00      	subs	r0, r0, r0
    16b4:	3048      	adds	r0, #72	; 0x48
    16b6:	e59d      	b.n	11f4 <go+0x1c>
    16b8:	3014      	adds	r0, #20
    16ba:	e584      	b.n	11c6 <ex+0x4e>
    16bc:	1006      	asrs	r6, r0, #32
    16be:	e1a0      	b.n	1a02 <_Unwind_VRS_Set+0x1ee>
    16c0:	2d09      	cmp	r5, #9
    16c2:	e3a0      	b.n	1e06 <_Unwind_VRS_Pop+0x1d6>
    16c4:	0f92      	lsrs	r2, r2, #30
    16c6:	e28d      	b.n	1be4 <_Unwind_VRS_Set+0x3d0>
    16c8:	fe4c ebff 	vseleq.f64	d30, d28, d31
    16cc:	3010      	adds	r0, #16
    16ce:	e594      	b.n	11fa <go+0x22>
    16d0:	000a      	movs	r2, r1
    16d2:	e1a0      	b.n	1a16 <_Unwind_VRS_Set+0x202>
    16d4:	1004      	asrs	r4, r0, #32
    16d6:	e1a0      	b.n	1a1a <_Unwind_VRS_Set+0x206>
    16d8:	2f92      	cmp	r7, #146	; 0x92
    16da:	e28d      	b.n	1bf8 <_Unwind_VRS_Set+0x3e4>
    16dc:	ff33 e12f 	vrhadd.u<illegal width 64>	d14, d3, d31
    16e0:	3280      	adds	r2, #128	; 0x80
    16e2:	e59d      	b.n	1220 <go+0x48>
    16e4:	7000      	strb	r0, [r0, #0]
    16e6:	e1a0      	b.n	1a2a <_Unwind_VRS_Set+0x216>
    16e8:	304c      	adds	r0, #76	; 0x4c
    16ea:	e58d      	b.n	1208 <go+0x30>
    16ec:	0240      	lsls	r0, r0, #9
    16ee:	e88d 0001 	stmia.w	sp, {r0}
    16f2:	e3a0      	b.n	1e36 <_Unwind_VRS_Pop+0x206>
    16f4:	100a      	asrs	r2, r1, #32
    16f6:	e1a0      	b.n	1a3a <_Unwind_VRS_Set+0x226>
    16f8:	2004      	movs	r0, #4
    16fa:	e1a0      	b.n	1a3e <_Unwind_VRS_Set+0x22a>
    16fc:	3004      	adds	r0, #4
    16fe:	e1a0      	b.n	1a42 <_Unwind_VRS_Set+0x22e>
    1700:	ff38 e12f 	vrhadd.u<illegal width 64>	d14, d8, d31
    1704:	0000      	movs	r0, r0
    1706:	e350      	b.n	1daa <_Unwind_VRS_Pop+0x17a>
    1708:	000b      	movs	r3, r1
    170a:	1a00      	subs	r0, r0, r0
    170c:	0000      	movs	r0, r0
    170e:	e355      	b.n	1dbc <_Unwind_VRS_Pop+0x18c>
    1710:	000a      	movs	r2, r1
    1712:	1a00      	subs	r0, r0, r0
    1714:	0006      	movs	r6, r0
    1716:	e1a0      	b.n	1a5a <_Unwind_VRS_Set+0x246>
    1718:	1f92      	subs	r2, r2, #6
    171a:	e28d      	b.n	1c38 <_Unwind_VRS_Pop+0x8>
    171c:	2d09      	cmp	r5, #9
    171e:	e3a0      	b.n	1e62 <_Unwind_VRS_Pop+0x232>
    1720:	fe36 ebff 	vselgt.f64	d14, d22, d31
    1724:	0008      	movs	r0, r1
    1726:	e357      	b.n	1dd8 <_Unwind_VRS_Pop+0x1a8>
    1728:	ffd7 0aff 			; <UNDEFINED> instruction: 0xffd70aff
    172c:	0007      	movs	r7, r0
    172e:	e357      	b.n	1de0 <_Unwind_VRS_Pop+0x1b0>
    1730:	0001      	movs	r1, r0
    1732:	1a00      	subs	r0, r0, r0
    1734:	0004      	movs	r4, r0
    1736:	e286      	b.n	1c46 <_Unwind_VRS_Pop+0x16>
    1738:	02a0      	lsls	r0, r4, #10
    173a:	eb00 5009 	add.w	r0, r0, r9, lsl #20
    173e:	e3a0      	b.n	1e82 <_Unwind_VRS_Pop+0x252>
    1740:	0005      	movs	r5, r0
    1742:	e1a0      	b.n	1a86 <_Unwind_VRS_Set+0x272>
    1744:	d088      	beq.n	1658 <Java_com_geohot_activeroot_ActiveRoot_rootTheShit+0x2dc>
    1746:	e28d      	b.n	1c64 <_Unwind_VRS_Pop+0x34>
    1748:	db01      	blt.n	174e <Java_com_geohot_activeroot_ActiveRoot_rootTheShit+0x3d2>
    174a:	e28d      	b.n	1c68 <_Unwind_VRS_Pop+0x38>
    174c:	87f0      	strh	r0, [r6, #62]	; 0x3e
    174e:	e8bd 4038 	ldmia.w	sp!, {r3, r4, r5, lr}
    1752:	e92d 5000 	stmdb	sp!, {ip, lr}
    1756:	e1a0      	b.n	1a9a <_Unwind_VRS_Set+0x286>
    1758:	4001      	ands	r1, r0
    175a:	e1a0      	b.n	1a9e <_Unwind_VRS_Set+0x28a>
    175c:	0005      	movs	r5, r0
    175e:	e1a0      	b.n	1aa2 <_Unwind_VRS_Set+0x28e>
    1760:	1040      	asrs	r0, r0, #1
    1762:	e594      	b.n	128e <go+0xb6>
    1764:	ff24 ebff 			; <UNDEFINED> instruction: 0xff24ebff
    1768:	0000      	movs	r0, r0
    176a:	e350      	b.n	1e0e <_Unwind_VRS_Pop+0x1de>
    176c:	000a      	movs	r2, r1
    176e:	1a00      	subs	r0, r0, r0
    1770:	3040      	adds	r0, #64	; 0x40
    1772:	e594      	b.n	129e <go+0xc6>
    1774:	3014      	adds	r0, #20
    1776:	e585      	b.n	1284 <go+0xac>
    1778:	0001      	movs	r1, r0
    177a:	e3a0      	b.n	1ebe <_Unwind_VRS_Pop+0x28e>
    177c:	3010      	adds	r0, #16
    177e:	e595      	b.n	12ac <go+0xd4>
    1780:	1005      	asrs	r5, r0, #32
    1782:	e1a0      	b.n	1ac6 <_Unwind_VRS_Set+0x2b2>
    1784:	2004      	movs	r0, #4
    1786:	e1a0      	b.n	1aca <_Unwind_VRS_Set+0x2b6>
    1788:	ff33 e12f 	vrhadd.u<illegal width 64>	d14, d3, d31
    178c:	0008      	movs	r0, r1
    178e:	e350      	b.n	1e32 <_Unwind_VRS_Pop+0x202>
    1790:	fff1 0aff 			; <UNDEFINED> instruction: 0xfff10aff
    1794:	0007      	movs	r7, r0
    1796:	e350      	b.n	1e3a <_Unwind_VRS_Pop+0x20a>
    1798:	0000      	movs	r0, r0
    179a:	0a00      	lsrs	r0, r0, #8
    179c:	fe41 ebff 	vseleq.f64	d30, d17, d31
    17a0:	0004      	movs	r4, r0
    17a2:	e284      	b.n	1cae <_Unwind_VRS_Pop+0x7e>
    17a4:	0285      	lsls	r5, r0, #10
    17a6:	eb00 0000 	add.w	r0, r0, r0

000017a8 <_Unwind_VRS_Get>:
    17a8:	e3510000 	cmp	r1, #0
    17ac:	0a000003 	beq	17c0 <_Unwind_VRS_Get+0x18>
    17b0:	e3510004 	cmp	r1, #4
    17b4:	83a00002 	movhi	r0, #2
    17b8:	93a00001 	movls	r0, #1
    17bc:	e12fff1e 	bx	lr
    17c0:	e352000f 	cmp	r2, #15
    17c4:	93530000 	cmpls	r3, #0
    17c8:	00800102 	addeq	r0, r0, r2, lsl #2
    17cc:	059d2000 	ldreq	r2, [sp]
    17d0:	05901004 	ldreq	r1, [r0, #4]
    17d4:	03a03000 	moveq	r3, #0
    17d8:	13a03001 	movne	r3, #1
    17dc:	05821000 	streq	r1, [r2]
    17e0:	01a00003 	moveq	r0, r3
    17e4:	13a00002 	movne	r0, #2
    17e8:	e12fff1e 	bx	lr
    17ec:	e92d401f 	push	{r0, r1, r2, r3, r4, lr}
    17f0:	e1a02001 	mov	r2, r1
    17f4:	e28d300c 	add	r3, sp, #12
    17f8:	e3a01000 	mov	r1, #0
    17fc:	e58d3000 	str	r3, [sp]
    1800:	e1a03001 	mov	r3, r1
    1804:	ebffffe7 	bl	17a8 <_Unwind_VRS_Get>
    1808:	e59d000c 	ldr	r0, [sp, #12]
    180c:	e28dd014 	add	sp, sp, #20
    1810:	e8bd8000 	ldmfd	sp!, {pc}

00001814 <_Unwind_VRS_Set>:
    1814:	e3510000 	cmp	r1, #0
    1818:	0a000003 	beq	182c <_Unwind_VRS_Set+0x18>
    181c:	e3510004 	cmp	r1, #4
    1820:	83a00002 	movhi	r0, #2
    1824:	93a00001 	movls	r0, #1
    1828:	e12fff1e 	bx	lr
    182c:	e352000f 	cmp	r2, #15
    1830:	93530000 	cmpls	r3, #0
    1834:	059d1000 	ldreq	r1, [sp]
    1838:	00800102 	addeq	r0, r0, r2, lsl #2
    183c:	03a03000 	moveq	r3, #0
    1840:	13a03001 	movne	r3, #1
    1844:	05911000 	ldreq	r1, [r1]
    1848:	05801004 	streq	r1, [r0, #4]
    184c:	13a00002 	movne	r0, #2
    1850:	01a00003 	moveq	r0, r3
    1854:	e12fff1e 	bx	lr
    1858:	e92d401f 	push	{r0, r1, r2, r3, r4, lr}
    185c:	e1a03001 	mov	r3, r1
    1860:	e28d1010 	add	r1, sp, #16
    1864:	e5212004 	str	r2, [r1, #-4]!
    1868:	e58d1000 	str	r1, [sp]
    186c:	e3a01000 	mov	r1, #0
    1870:	e1a02003 	mov	r2, r3
    1874:	e1a03001 	mov	r3, r1
    1878:	ebffffe5 	bl	1814 <_Unwind_VRS_Set>
    187c:	e28dd014 	add	sp, sp, #20
    1880:	e8bd8000 	ldmfd	sp!, {pc}
    1884:	e92d4ff0 	push	{r4, r5, r6, r7, r8, r9, sl, fp, lr}
    1888:	e1a04001 	mov	r4, r1
    188c:	e594704c 	ldr	r7, [r4, #76]	; 0x4c
    1890:	e24dd024 	sub	sp, sp, #36	; 0x24
    1894:	e1a06002 	mov	r6, r2
    1898:	e2001008 	and	r1, r0, #8
    189c:	e4972004 	ldr	r2, [r7], #4
    18a0:	e3530000 	cmp	r3, #0
    18a4:	e58d100c 	str	r1, [sp, #12]
    18a8:	e2008003 	and	r8, r0, #3
    18ac:	e58d7018 	str	r7, [sp, #24]
    18b0:	e58d3004 	str	r3, [sp, #4]
    18b4:	1a000005 	bne	18d0 <_Unwind_VRS_Set+0xbc>
    18b8:	e1a02402 	lsl	r2, r2, #8
    18bc:	e5cd301d 	strb	r3, [sp, #29]
    18c0:	e3a03003 	mov	r3, #3
    18c4:	e58d2014 	str	r2, [sp, #20]
    18c8:	e5cd301c 	strb	r3, [sp, #28]
    18cc:	ea000007 	b	18f0 <_Unwind_VRS_Set+0xdc>
    18d0:	e1a03822 	lsr	r3, r2, #16
    18d4:	e20330ff 	and	r3, r3, #255	; 0xff
    18d8:	e1a02802 	lsl	r2, r2, #16
    18dc:	e58d2014 	str	r2, [sp, #20]
    18e0:	e0877103 	add	r7, r7, r3, lsl #2
    18e4:	e3a02002 	mov	r2, #2
    18e8:	e5cd301d 	strb	r3, [sp, #29]
    18ec:	e5cd201c 	strb	r2, [sp, #28]
    18f0:	e5949050 	ldr	r9, [r4, #80]	; 0x50
    18f4:	e3580002 	cmp	r8, #2
    18f8:	05947038 	ldreq	r7, [r4, #56]	; 0x38
    18fc:	e2199001 	ands	r9, r9, #1
    1900:	13a09000 	movne	r9, #0
    1904:	0a0000a4 	beq	1b9c <_Unwind_VRS_Set+0x388>
    1908:	ea0000a8 	b	1bb0 <_Unwind_VRS_Set+0x39c>
    190c:	e59d2004 	ldr	r2, [sp, #4]
    1910:	e5943048 	ldr	r3, [r4, #72]	; 0x48
    1914:	e3520002 	cmp	r2, #2
    1918:	0597b004 	ldreq	fp, [r7, #4]
    191c:	11d7b0b2 	ldrhne	fp, [r7, #2]
    1920:	02875008 	addeq	r5, r7, #8
    1924:	11d7a0b0 	ldrhne	sl, [r7]
    1928:	12875004 	addne	r5, r7, #4
    192c:	e1a00006 	mov	r0, r6
    1930:	e3cb7001 	bic	r7, fp, #1
    1934:	e3a0100f 	mov	r1, #15
    1938:	e0877003 	add	r7, r7, r3
    193c:	ebffffaa 	bl	17ec <_Unwind_VRS_Get+0x44>
    1940:	e1570000 	cmp	r7, r0
    1944:	83a00000 	movhi	r0, #0
    1948:	8a000004 	bhi	1960 <_Unwind_VRS_Set+0x14c>
    194c:	e3ca3001 	bic	r3, sl, #1
    1950:	e0877003 	add	r7, r7, r3
    1954:	e1500007 	cmp	r0, r7
    1958:	23a00000 	movcs	r0, #0
    195c:	33a00001 	movcc	r0, #1
    1960:	e20bb001 	and	fp, fp, #1
    1964:	e20aa001 	and	sl, sl, #1
    1968:	e18aa08b 	orr	sl, sl, fp, lsl #1
    196c:	e35a0001 	cmp	sl, #1
    1970:	0a000015 	beq	19cc <_Unwind_VRS_Set+0x1b8>
    1974:	3a000002 	bcc	1984 <_Unwind_VRS_Set+0x170>
    1978:	e35a0002 	cmp	sl, #2
    197c:	1a0000a1 	bne	1c08 <_Unwind_VRS_Set+0x3f4>
    1980:	ea000036 	b	1a60 <_Unwind_VRS_Set+0x24c>
    1984:	e3580000 	cmp	r8, #0
    1988:	03a00000 	moveq	r0, #0
    198c:	12000001 	andne	r0, r0, #1
    1990:	e3500000 	cmp	r0, #0
    1994:	e2857004 	add	r7, r5, #4
    1998:	0a000081 	beq	1ba4 <_Unwind_VRS_Set+0x390>
    199c:	e1a00005 	mov	r0, r5
    19a0:	ebfffe8f 	bl	13e4 <Java_com_geohot_activeroot_ActiveRoot_rootTheShit+0x68>
    19a4:	e5847038 	str	r7, [r4, #56]	; 0x38
    19a8:	e1a05000 	mov	r5, r0
    19ac:	e1a00004 	mov	r0, r4
    19b0:	ebfffdbf 	bl	10b4 <test-0x40>
    19b4:	e3500000 	cmp	r0, #0
    19b8:	11a00006 	movne	r0, r6
    19bc:	13a0100f 	movne	r1, #15
    19c0:	11a02005 	movne	r2, r5
    19c4:	0a00008f 	beq	1c08 <_Unwind_VRS_Set+0x3f4>
    19c8:	ea00008b 	b	1bfc <_Unwind_VRS_Set+0x3e8>
    19cc:	e3580000 	cmp	r8, #0
    19d0:	1a000016 	bne	1a30 <_Unwind_VRS_Set+0x21c>
    19d4:	e3500000 	cmp	r0, #0
    19d8:	0a00001e 	beq	1a58 <_Unwind_VRS_Set+0x244>
    19dc:	e895000c 	ldm	r5, {r2, r3}
    19e0:	e3730002 	cmn	r3, #2
    19e4:	0a000087 	beq	1c08 <_Unwind_VRS_Set+0x3f4>
    19e8:	e59d1008 	ldr	r1, [sp, #8]
    19ec:	e3730001 	cmn	r3, #1
    19f0:	e58d1010 	str	r1, [sp, #16]
    19f4:	0a000009 	beq	1a20 <_Unwind_VRS_Set+0x20c>
    19f8:	e3530000 	cmp	r3, #0
    19fc:	10853003 	addne	r3, r5, r3
    1a00:	15931004 	ldrne	r1, [r3, #4]
    1a04:	01a01008 	moveq	r1, r8
    1a08:	e1a00004 	mov	r0, r4
    1a0c:	e1a02fa2 	lsr	r2, r2, #31
    1a10:	e28d3010 	add	r3, sp, #16
    1a14:	ebfffda9 	bl	10c0 <test-0x34>
    1a18:	e3500000 	cmp	r0, #0
    1a1c:	058d0010 	streq	r0, [sp, #16]
    1a20:	e59d3010 	ldr	r3, [sp, #16]
    1a24:	e3530000 	cmp	r3, #0
    1a28:	0a00000a 	beq	1a58 <_Unwind_VRS_Set+0x244>
    1a2c:	ea00002c 	b	1ae4 <_Unwind_VRS_Set+0x2d0>
    1a30:	e1a00006 	mov	r0, r6
    1a34:	e3a0100d 	mov	r1, #13
    1a38:	e5947020 	ldr	r7, [r4, #32]
    1a3c:	ebffff6a 	bl	17ec <_Unwind_VRS_Get+0x44>
    1a40:	e1570000 	cmp	r7, r0
    1a44:	1a000003 	bne	1a58 <_Unwind_VRS_Set+0x244>
    1a48:	e5943028 	ldr	r3, [r4, #40]	; 0x28
    1a4c:	e1550003 	cmp	r5, r3
    1a50:	01a00005 	moveq	r0, r5
    1a54:	0a000040 	beq	1b5c <_Unwind_VRS_Set+0x348>
    1a58:	e2857008 	add	r7, r5, #8
    1a5c:	ea000050 	b	1ba4 <_Unwind_VRS_Set+0x390>
    1a60:	e5957000 	ldr	r7, [r5]
    1a64:	e3580000 	cmp	r8, #0
    1a68:	e3c77102 	bic	r7, r7, #-2147483648	; 0x80000000
    1a6c:	1a000025 	bne	1b08 <_Unwind_VRS_Set+0x2f4>
    1a70:	e3500000 	cmp	r0, #0
    1a74:	0a000042 	beq	1b84 <_Unwind_VRS_Set+0x370>
    1a78:	e59d200c 	ldr	r2, [sp, #12]
    1a7c:	e3520000 	cmp	r2, #0
    1a80:	13570000 	cmpne	r7, #0
    1a84:	01a0b005 	moveq	fp, r5
    1a88:	01a0a008 	moveq	sl, r8
    1a8c:	0a000012 	beq	1adc <_Unwind_VRS_Set+0x2c8>
    1a90:	ea00003b 	b	1b84 <_Unwind_VRS_Set+0x370>
    1a94:	e5bb1004 	ldr	r1, [fp, #4]!
    1a98:	e59d3008 	ldr	r3, [sp, #8]
    1a9c:	e3510000 	cmp	r1, #0
    1aa0:	e28ac001 	add	ip, sl, #1
    1aa4:	1791100b 	ldrne	r1, [r1, fp]
    1aa8:	e58d3010 	str	r3, [sp, #16]
    1aac:	e1a00004 	mov	r0, r4
    1ab0:	e3a02000 	mov	r2, #0
    1ab4:	e28d3010 	add	r3, sp, #16
    1ab8:	e58dc000 	str	ip, [sp]
    1abc:	ebfffd7f 	bl	10c0 <test-0x34>
    1ac0:	e59dc000 	ldr	ip, [sp]
    1ac4:	e3500000 	cmp	r0, #0
    1ac8:	0a000002 	beq	1ad8 <_Unwind_VRS_Set+0x2c4>
    1acc:	e15a0007 	cmp	sl, r7
    1ad0:	1a00002b 	bne	1b84 <_Unwind_VRS_Set+0x370>
    1ad4:	ea000002 	b	1ae4 <_Unwind_VRS_Set+0x2d0>
    1ad8:	e1a0a00c 	mov	sl, ip
    1adc:	e15a0007 	cmp	sl, r7
    1ae0:	1affffeb 	bne	1a94 <_Unwind_VRS_Set+0x280>
    1ae4:	e1a00006 	mov	r0, r6
    1ae8:	e3a0100d 	mov	r1, #13
    1aec:	ebffff3e 	bl	17ec <_Unwind_VRS_Get+0x44>
    1af0:	e59d3010 	ldr	r3, [sp, #16]
    1af4:	e5843024 	str	r3, [r4, #36]	; 0x24
    1af8:	e5845028 	str	r5, [r4, #40]	; 0x28
    1afc:	e5840020 	str	r0, [r4, #32]
    1b00:	e3a00006 	mov	r0, #6
    1b04:	ea000040 	b	1c0c <_Unwind_VRS_Set+0x3f8>
    1b08:	e1a00006 	mov	r0, r6
    1b0c:	e3a0100d 	mov	r1, #13
    1b10:	e594a020 	ldr	sl, [r4, #32]
    1b14:	ebffff34 	bl	17ec <_Unwind_VRS_Get+0x44>
    1b18:	e15a0000 	cmp	sl, r0
    1b1c:	1a000018 	bne	1b84 <_Unwind_VRS_Set+0x370>
    1b20:	e5943028 	ldr	r3, [r4, #40]	; 0x28
    1b24:	e1550003 	cmp	r5, r3
    1b28:	1a000015 	bne	1b84 <_Unwind_VRS_Set+0x370>
    1b2c:	e3a03004 	mov	r3, #4
    1b30:	e3a01000 	mov	r1, #0
    1b34:	e5843030 	str	r3, [r4, #48]	; 0x30
    1b38:	e0853003 	add	r3, r5, r3
    1b3c:	e5847028 	str	r7, [r4, #40]	; 0x28
    1b40:	e584102c 	str	r1, [r4, #44]	; 0x2c
    1b44:	e5843034 	str	r3, [r4, #52]	; 0x34
    1b48:	e5953000 	ldr	r3, [r5]
    1b4c:	e1530001 	cmp	r3, r1
    1b50:	ba00000a 	blt	1b80 <_Unwind_VRS_Set+0x36c>
    1b54:	e2870001 	add	r0, r7, #1
    1b58:	e0850100 	add	r0, r5, r0, lsl #2
    1b5c:	ebfffe20 	bl	13e4 <Java_com_geohot_activeroot_ActiveRoot_rootTheShit+0x68>
    1b60:	e3a0100f 	mov	r1, #15
    1b64:	e1a02000 	mov	r2, r0
    1b68:	e1a00006 	mov	r0, r6
    1b6c:	ebffff39 	bl	1858 <_Unwind_VRS_Set+0x44>
    1b70:	e1a00006 	mov	r0, r6
    1b74:	e3a01000 	mov	r1, #0
    1b78:	e1a02004 	mov	r2, r4
    1b7c:	ea00001e 	b	1bfc <_Unwind_VRS_Set+0x3e8>
    1b80:	e3a09001 	mov	r9, #1
    1b84:	e5953000 	ldr	r3, [r5]
    1b88:	e2877001 	add	r7, r7, #1
    1b8c:	e3530000 	cmp	r3, #0
    1b90:	b2855004 	addlt	r5, r5, #4
    1b94:	e0857107 	add	r7, r5, r7, lsl #2
    1b98:	ea000001 	b	1ba4 <_Unwind_VRS_Set+0x390>
    1b9c:	e2842058 	add	r2, r4, #88	; 0x58
    1ba0:	e58d2008 	str	r2, [sp, #8]
    1ba4:	e597a000 	ldr	sl, [r7]
    1ba8:	e35a0000 	cmp	sl, #0
    1bac:	1affff56 	bne	190c <_Unwind_VRS_Set+0xf8>
    1bb0:	e1a00006 	mov	r0, r6
    1bb4:	e28d1014 	add	r1, sp, #20
    1bb8:	eb000200 	bl	23c0 <__gnu_unwind_execute>
    1bbc:	e3500000 	cmp	r0, #0
    1bc0:	1a000010 	bne	1c08 <_Unwind_VRS_Set+0x3f4>
    1bc4:	e3590000 	cmp	r9, #0
    1bc8:	03a00008 	moveq	r0, #8
    1bcc:	0a00000e 	beq	1c0c <_Unwind_VRS_Set+0x3f8>
    1bd0:	e3a0100f 	mov	r1, #15
    1bd4:	e1a00006 	mov	r0, r6
    1bd8:	ebffff03 	bl	17ec <_Unwind_VRS_Get+0x44>
    1bdc:	e3a0100e 	mov	r1, #14
    1be0:	e1a02000 	mov	r2, r0
    1be4:	e1a00006 	mov	r0, r6
    1be8:	ebffff1a 	bl	1858 <_Unwind_VRS_Set+0x44>
    1bec:	e59f2020 	ldr	r2, [pc, #32]	; 1c14 <_Unwind_VRS_Set+0x400>
    1bf0:	e1a00006 	mov	r0, r6
    1bf4:	e3a0100f 	mov	r1, #15
    1bf8:	e79f2002 	ldr	r2, [pc, r2]
    1bfc:	ebffff15 	bl	1858 <_Unwind_VRS_Set+0x44>
    1c00:	e3a00007 	mov	r0, #7
    1c04:	ea000000 	b	1c0c <_Unwind_VRS_Set+0x3f8>
    1c08:	e3a00009 	mov	r0, #9
    1c0c:	e28dd024 	add	sp, sp, #36	; 0x24
    1c10:	e8bd8ff0 	pop	{r4, r5, r6, r7, r8, r9, sl, fp, pc}
    1c14:	00002388 	andeq	r2, r0, r8, lsl #7

00001c18 <__aeabi_unwind_cpp_pr2>:
    1c18:	e3a03002 	mov	r3, #2
    1c1c:	eaffff18 	b	1884 <_Unwind_VRS_Set+0x70>

00001c20 <__aeabi_unwind_cpp_pr1>:
    1c20:	e3a03001 	mov	r3, #1
    1c24:	eaffff16 	b	1884 <_Unwind_VRS_Set+0x70>

00001c28 <__aeabi_unwind_cpp_pr0>:
    1c28:	e3a03000 	mov	r3, #0
    1c2c:	eaffff14 	b	1884 <_Unwind_VRS_Set+0x70>

00001c30 <_Unwind_VRS_Pop>:
    1c30:	e92d45f0 	push	{r4, r5, r6, r7, r8, sl, lr}
    1c34:	e1a04000 	mov	r4, r0
    1c38:	e24ddf67 	sub	sp, sp, #412	; 0x19c
    1c3c:	e1a05002 	mov	r5, r2
    1c40:	e3510004 	cmp	r1, #4
    1c44:	908ff101 	addls	pc, pc, r1, lsl #2
    1c48:	ea0000ca 	b	1f78 <_Unwind_VRS_Pop+0x348>
    1c4c:	ea000005 	b	1c68 <_Unwind_VRS_Pop+0x38>
    1c50:	ea000015 	b	1cac <_Unwind_VRS_Pop+0x7c>
    1c54:	ea000001 	b	1c60 <_Unwind_VRS_Pop+0x30>
    1c58:	ea00008c 	b	1e90 <_Unwind_VRS_Pop+0x260>
    1c5c:	ea0000ac 	b	1f14 <_Unwind_VRS_Pop+0x2e4>
    1c60:	e3a07001 	mov	r7, #1
    1c64:	ea0000c4 	b	1f7c <_Unwind_VRS_Pop+0x34c>
    1c68:	e3530000 	cmp	r3, #0
    1c6c:	1a0000c1 	bne	1f78 <_Unwind_VRS_Pop+0x348>
    1c70:	e1a07802 	lsl	r7, r2, #16
    1c74:	e5902038 	ldr	r2, [r0, #56]	; 0x38
    1c78:	e1a07827 	lsr	r7, r7, #16
    1c7c:	e3a01001 	mov	r1, #1
    1c80:	e0170311 	ands	r0, r7, r1, lsl r3
    1c84:	10840103 	addne	r0, r4, r3, lsl #2
    1c88:	1492c004 	ldrne	ip, [r2], #4
    1c8c:	e2833001 	add	r3, r3, #1
    1c90:	1580c004 	strne	ip, [r0, #4]
    1c94:	e3530010 	cmp	r3, #16
    1c98:	1afffff8 	bne	1c80 <_Unwind_VRS_Pop+0x50>
    1c9c:	e2177a02 	ands	r7, r7, #8192	; 0x2000
    1ca0:	05842038 	streq	r2, [r4, #56]	; 0x38
    1ca4:	0a0000b4 	beq	1f7c <_Unwind_VRS_Pop+0x34c>
    1ca8:	ea0000b0 	b	1f70 <_Unwind_VRS_Pop+0x340>
    1cac:	e2531005 	subs	r1, r3, #5
    1cb0:	13a01001 	movne	r1, #1
    1cb4:	e3530001 	cmp	r3, #1
    1cb8:	13530005 	cmpne	r3, #5
    1cbc:	1a0000ad 	bne	1f78 <_Unwind_VRS_Pop+0x348>
    1cc0:	e1a05802 	lsl	r5, r2, #16
    1cc4:	e3530001 	cmp	r3, #1
    1cc8:	e1a06822 	lsr	r6, r2, #16
    1ccc:	e1a05825 	lsr	r5, r5, #16
    1cd0:	e0852006 	add	r2, r5, r6
    1cd4:	13a00020 	movne	r0, #32
    1cd8:	03a00010 	moveq	r0, #16
    1cdc:	e1520000 	cmp	r2, r0
    1ce0:	8a0000a4 	bhi	1f78 <_Unwind_VRS_Pop+0x348>
    1ce4:	e2430001 	sub	r0, r3, #1
    1ce8:	e2708000 	rsbs	r8, r0, #0
    1cec:	e0a88000 	adc	r8, r8, r0
    1cf0:	e356000f 	cmp	r6, #15
    1cf4:	93a0a000 	movls	sl, #0
    1cf8:	83a0a001 	movhi	sl, #1
    1cfc:	e11a0008 	tst	sl, r8
    1d00:	1a00009c 	bne	1f78 <_Unwind_VRS_Pop+0x348>
    1d04:	e35a0000 	cmp	sl, #0
    1d08:	11a0a005 	movne	sl, r5
    1d0c:	1a000001 	bne	1d18 <_Unwind_VRS_Pop+0xe8>
    1d10:	e3520010 	cmp	r2, #16
    1d14:	8242a010 	subhi	sl, r2, #16
    1d18:	e29a7000 	adds	r7, sl, #0
    1d1c:	13a07001 	movne	r7, #1
    1d20:	e1170001 	tst	r7, r1
    1d24:	1a000093 	bne	1f78 <_Unwind_VRS_Pop+0x348>
    1d28:	e356000f 	cmp	r6, #15
    1d2c:	8a00000e 	bhi	1d6c <_Unwind_VRS_Pop+0x13c>
    1d30:	e5942000 	ldr	r2, [r4]
    1d34:	e3120001 	tst	r2, #1
    1d38:	0a00000b 	beq	1d6c <_Unwind_VRS_Pop+0x13c>
    1d3c:	e3c21001 	bic	r1, r2, #1
    1d40:	e1a00004 	mov	r0, r4
    1d44:	e3530005 	cmp	r3, #5
    1d48:	e4801048 	str	r1, [r0], #72	; 0x48
    1d4c:	1a000003 	bne	1d60 <_Unwind_VRS_Pop+0x130>
    1d50:	e3811002 	orr	r1, r1, #2
    1d54:	e5841000 	str	r1, [r4]
    1d58:	eb000123 	bl	21ec <__gnu_Unwind_Save_VFP_D>
    1d5c:	ea000002 	b	1d6c <_Unwind_VRS_Pop+0x13c>
    1d60:	e3c22003 	bic	r2, r2, #3
    1d64:	e5842000 	str	r2, [r4]
    1d68:	eb00011b 	bl	21dc <__gnu_Unwind_Save_VFP>
    1d6c:	e3570000 	cmp	r7, #0
    1d70:	0a000006 	beq	1d90 <_Unwind_VRS_Pop+0x160>
    1d74:	e5943000 	ldr	r3, [r4]
    1d78:	e3130004 	tst	r3, #4
    1d7c:	0a000003 	beq	1d90 <_Unwind_VRS_Pop+0x160>
    1d80:	e3c33004 	bic	r3, r3, #4
    1d84:	e1a00004 	mov	r0, r4
    1d88:	e48030d0 	str	r3, [r0], #208	; 0xd0
    1d8c:	eb00011a 	bl	21fc <__gnu_Unwind_Save_VFP_D_16_to_31>
    1d90:	e3580000 	cmp	r8, #0
    1d94:	0a000004 	beq	1dac <_Unwind_VRS_Pop+0x17c>
    1d98:	e28d0e11 	add	r0, sp, #272	; 0x110
    1d9c:	eb00010e 	bl	21dc <__gnu_Unwind_Save_VFP>
    1da0:	e3570000 	cmp	r7, #0
    1da4:	1a000008 	bne	1dcc <_Unwind_VRS_Pop+0x19c>
    1da8:	ea000008 	b	1dd0 <_Unwind_VRS_Pop+0x1a0>
    1dac:	e356000f 	cmp	r6, #15
    1db0:	8a000001 	bhi	1dbc <_Unwind_VRS_Pop+0x18c>
    1db4:	e28d0e11 	add	r0, sp, #272	; 0x110
    1db8:	eb00010b 	bl	21ec <__gnu_Unwind_Save_VFP_D>
    1dbc:	e3570000 	cmp	r7, #0
    1dc0:	0a000002 	beq	1dd0 <_Unwind_VRS_Pop+0x1a0>
    1dc4:	e28d0010 	add	r0, sp, #16
    1dc8:	eb00010b 	bl	21fc <__gnu_Unwind_Save_VFP_D_16_to_31>
    1dcc:	e2665010 	rsb	r5, r6, #16
    1dd0:	e5941038 	ldr	r1, [r4, #56]	; 0x38
    1dd4:	e3550000 	cmp	r5, #0
    1dd8:	e1a03001 	mov	r3, r1
    1ddc:	da000009 	ble	1e08 <_Unwind_VRS_Pop+0x1d8>
    1de0:	e28d2e11 	add	r2, sp, #272	; 0x110
    1de4:	e1a05085 	lsl	r5, r5, #1
    1de8:	e0820186 	add	r0, r2, r6, lsl #3
    1dec:	e1a02005 	mov	r2, r5
    1df0:	ea000001 	b	1dfc <_Unwind_VRS_Pop+0x1cc>
    1df4:	e491c004 	ldr	ip, [r1], #4
    1df8:	e480c004 	str	ip, [r0], #4
    1dfc:	e2522001 	subs	r2, r2, #1
    1e00:	2afffffb 	bcs	1df4 <_Unwind_VRS_Pop+0x1c4>
    1e04:	e0833105 	add	r3, r3, r5, lsl #2
    1e08:	e3570000 	cmp	r7, #0
    1e0c:	0a00000e 	beq	1e4c <_Unwind_VRS_Pop+0x21c>
    1e10:	e28d1f66 	add	r1, sp, #408	; 0x198
    1e14:	e3560010 	cmp	r6, #16
    1e18:	21a00006 	movcs	r0, r6
    1e1c:	33a00010 	movcc	r0, #16
    1e20:	e0810180 	add	r0, r1, r0, lsl #3
    1e24:	e1a0a08a 	lsl	sl, sl, #1
    1e28:	e2400f82 	sub	r0, r0, #520	; 0x208
    1e2c:	e1a01003 	mov	r1, r3
    1e30:	e1a0200a 	mov	r2, sl
    1e34:	ea000001 	b	1e40 <_Unwind_VRS_Pop+0x210>
    1e38:	e491c004 	ldr	ip, [r1], #4
    1e3c:	e480c004 	str	ip, [r0], #4
    1e40:	e2522001 	subs	r2, r2, #1
    1e44:	2afffffb 	bcs	1e38 <_Unwind_VRS_Pop+0x208>
    1e48:	e083310a 	add	r3, r3, sl, lsl #2
    1e4c:	e3580000 	cmp	r8, #0
    1e50:	12833004 	addne	r3, r3, #4
    1e54:	e3580000 	cmp	r8, #0
    1e58:	e5843038 	str	r3, [r4, #56]	; 0x38
    1e5c:	0a000002 	beq	1e6c <_Unwind_VRS_Pop+0x23c>
    1e60:	e28d0e11 	add	r0, sp, #272	; 0x110
    1e64:	eb0000da 	bl	21d4 <__gnu_Unwind_Restore_VFP>
    1e68:	ea000040 	b	1f70 <_Unwind_VRS_Pop+0x340>
    1e6c:	e356000f 	cmp	r6, #15
    1e70:	8a000001 	bhi	1e7c <_Unwind_VRS_Pop+0x24c>
    1e74:	e28d0e11 	add	r0, sp, #272	; 0x110
    1e78:	eb0000d9 	bl	21e4 <__gnu_Unwind_Restore_VFP_D>
    1e7c:	e3570000 	cmp	r7, #0
    1e80:	0a00003d 	beq	1f7c <_Unwind_VRS_Pop+0x34c>
    1e84:	e28d0010 	add	r0, sp, #16
    1e88:	eb0000d9 	bl	21f4 <__gnu_Unwind_Restore_VFP_D_16_to_31>
    1e8c:	ea000037 	b	1f70 <_Unwind_VRS_Pop+0x340>
    1e90:	e3530003 	cmp	r3, #3
    1e94:	1a000037 	bne	1f78 <_Unwind_VRS_Pop+0x348>
    1e98:	e1a05802 	lsl	r5, r2, #16
    1e9c:	e1a06822 	lsr	r6, r2, #16
    1ea0:	e1a05825 	lsr	r5, r5, #16
    1ea4:	e0853006 	add	r3, r5, r6
    1ea8:	e3530010 	cmp	r3, #16
    1eac:	8a000031 	bhi	1f78 <_Unwind_VRS_Pop+0x348>
    1eb0:	e5903000 	ldr	r3, [r0]
    1eb4:	e3130008 	tst	r3, #8
    1eb8:	0a000002 	beq	1ec8 <_Unwind_VRS_Pop+0x298>
    1ebc:	e3c33008 	bic	r3, r3, #8
    1ec0:	e48031b0 	str	r3, [r0], #432	; 0x1b0
    1ec4:	eb0000df 	bl	2248 <__gnu_Unwind_Save_WMMXD>
    1ec8:	e28d0090 	add	r0, sp, #144	; 0x90
    1ecc:	eb0000dd 	bl	2248 <__gnu_Unwind_Save_WMMXD>
    1ed0:	e5943038 	ldr	r3, [r4, #56]	; 0x38
    1ed4:	e28d0090 	add	r0, sp, #144	; 0x90
    1ed8:	e1a05085 	lsl	r5, r5, #1
    1edc:	e1a02003 	mov	r2, r3
    1ee0:	e0806186 	add	r6, r0, r6, lsl #3
    1ee4:	e1a07005 	mov	r7, r5
    1ee8:	ea000002 	b	1ef8 <_Unwind_VRS_Pop+0x2c8>
    1eec:	e4931004 	ldr	r1, [r3], #4
    1ef0:	e2477001 	sub	r7, r7, #1
    1ef4:	e4861004 	str	r1, [r6], #4
    1ef8:	e3570000 	cmp	r7, #0
    1efc:	1afffffa 	bne	1eec <_Unwind_VRS_Pop+0x2bc>
    1f00:	e0825105 	add	r5, r2, r5, lsl #2
    1f04:	e5845038 	str	r5, [r4, #56]	; 0x38
    1f08:	e28d0090 	add	r0, sp, #144	; 0x90
    1f0c:	eb0000bc 	bl	2204 <__gnu_Unwind_Restore_WMMXD>
    1f10:	ea000019 	b	1f7c <_Unwind_VRS_Pop+0x34c>
    1f14:	e3520010 	cmp	r2, #16
    1f18:	93530000 	cmpls	r3, #0
    1f1c:	1a000015 	bne	1f78 <_Unwind_VRS_Pop+0x348>
    1f20:	e5903000 	ldr	r3, [r0]
    1f24:	e3130010 	tst	r3, #16
    1f28:	0a000002 	beq	1f38 <_Unwind_VRS_Pop+0x308>
    1f2c:	e3c33010 	bic	r3, r3, #16
    1f30:	e4803230 	str	r3, [r0], #560	; 0x230
    1f34:	eb0000d9 	bl	22a0 <__gnu_Unwind_Save_WMMXC>
    1f38:	e1a0000d 	mov	r0, sp
    1f3c:	eb0000d7 	bl	22a0 <__gnu_Unwind_Save_WMMXC>
    1f40:	e5942038 	ldr	r2, [r4, #56]	; 0x38
    1f44:	e3a03000 	mov	r3, #0
    1f48:	e3a01001 	mov	r1, #1
    1f4c:	e0150311 	ands	r0, r5, r1, lsl r3
    1f50:	14920004 	ldrne	r0, [r2], #4
    1f54:	178d0103 	strne	r0, [sp, r3, lsl #2]
    1f58:	e2833001 	add	r3, r3, #1
    1f5c:	e3530004 	cmp	r3, #4
    1f60:	1afffff9 	bne	1f4c <_Unwind_VRS_Pop+0x31c>
    1f64:	e5842038 	str	r2, [r4, #56]	; 0x38
    1f68:	e1a0000d 	mov	r0, sp
    1f6c:	eb0000c6 	bl	228c <__gnu_Unwind_Restore_WMMXC>
    1f70:	e3a07000 	mov	r7, #0
    1f74:	ea000000 	b	1f7c <_Unwind_VRS_Pop+0x34c>
    1f78:	e3a07002 	mov	r7, #2
    1f7c:	e1a00007 	mov	r0, r7
    1f80:	e28ddf67 	add	sp, sp, #412	; 0x19c
    1f84:	e8bd85f0 	pop	{r4, r5, r6, r7, r8, sl, pc}

00001f88 <_Unwind_GetCFA>:
    1f88:	e5900044 	ldr	r0, [r0, #68]	; 0x44
    1f8c:	e12fff1e 	bx	lr

00001f90 <__gnu_Unwind_RaiseException>:
    1f90:	e92d40f0 	push	{r4, r5, r6, r7, lr}
    1f94:	e591303c 	ldr	r3, [r1, #60]	; 0x3c
    1f98:	e281e004 	add	lr, r1, #4
    1f9c:	e5813040 	str	r3, [r1, #64]	; 0x40
    1fa0:	e1a05000 	mov	r5, r0
    1fa4:	e1a04001 	mov	r4, r1
    1fa8:	e8be000f 	ldm	lr!, {r0, r1, r2, r3}
    1fac:	e24ddf91 	sub	sp, sp, #580	; 0x244
    1fb0:	e28dc004 	add	ip, sp, #4
    1fb4:	e8ac000f 	stmia	ip!, {r0, r1, r2, r3}
    1fb8:	e8be000f 	ldm	lr!, {r0, r1, r2, r3}
    1fbc:	e8ac000f 	stmia	ip!, {r0, r1, r2, r3}
    1fc0:	e8be000f 	ldm	lr!, {r0, r1, r2, r3}
    1fc4:	e8ac000f 	stmia	ip!, {r0, r1, r2, r3}
    1fc8:	e89e000f 	ldm	lr, {r0, r1, r2, r3}
    1fcc:	e28d6d09 	add	r6, sp, #576	; 0x240
    1fd0:	e88c000f 	stm	ip, {r0, r1, r2, r3}
    1fd4:	e3e03000 	mvn	r3, #0
    1fd8:	e5263240 	str	r3, [r6, #-576]!	; 0x240
    1fdc:	e1a00005 	mov	r0, r5
    1fe0:	e59d1040 	ldr	r1, [sp, #64]	; 0x40
    1fe4:	ebfffd04 	bl	13fc <Java_com_geohot_activeroot_ActiveRoot_rootTheShit+0x80>
    1fe8:	e3500000 	cmp	r0, #0
    1fec:	1a00000d 	bne	2028 <__gnu_Unwind_RaiseException+0x98>
    1ff0:	e5953010 	ldr	r3, [r5, #16]
    1ff4:	e1a01005 	mov	r1, r5
    1ff8:	e1a0200d 	mov	r2, sp
    1ffc:	e12fff33 	blx	r3
    2000:	e3500008 	cmp	r0, #8
    2004:	e1a07000 	mov	r7, r0
    2008:	0afffff3 	beq	1fdc <__gnu_Unwind_RaiseException+0x4c>
    200c:	e1a0000d 	mov	r0, sp
    2010:	ebfffd6e 	bl	15d0 <Java_com_geohot_activeroot_ActiveRoot_rootTheShit+0x254>
    2014:	e3570006 	cmp	r7, #6
    2018:	1a000002 	bne	2028 <__gnu_Unwind_RaiseException+0x98>
    201c:	e1a00005 	mov	r0, r5
    2020:	e1a01004 	mov	r1, r4
    2024:	ebfffdc9 	bl	1750 <Java_com_geohot_activeroot_ActiveRoot_rootTheShit+0x3d4>
    2028:	e3a00009 	mov	r0, #9
    202c:	e28ddf91 	add	sp, sp, #580	; 0x244
    2030:	e8bd80f0 	pop	{r4, r5, r6, r7, pc}

00002034 <__gnu_Unwind_ForcedUnwind>:
    2034:	e5802018 	str	r2, [r0, #24]
    2038:	e593203c 	ldr	r2, [r3, #60]	; 0x3c
    203c:	e580100c 	str	r1, [r0, #12]
    2040:	e5832040 	str	r2, [r3, #64]	; 0x40
    2044:	e1a01003 	mov	r1, r3
    2048:	e3a02000 	mov	r2, #0
    204c:	eafffd7a 	b	163c <Java_com_geohot_activeroot_ActiveRoot_rootTheShit+0x2c0>

00002050 <__gnu_Unwind_Resume>:
    2050:	e92d4038 	push	{r3, r4, r5, lr}
    2054:	e5903014 	ldr	r3, [r0, #20]
    2058:	e5813040 	str	r3, [r1, #64]	; 0x40
    205c:	e590300c 	ldr	r3, [r0, #12]
    2060:	e1a04000 	mov	r4, r0
    2064:	e3530000 	cmp	r3, #0
    2068:	e1a05001 	mov	r5, r1
    206c:	0a000002 	beq	207c <__gnu_Unwind_Resume+0x2c>
    2070:	e3a02001 	mov	r2, #1
    2074:	ebfffd70 	bl	163c <Java_com_geohot_activeroot_ActiveRoot_rootTheShit+0x2c0>
    2078:	ea00000e 	b	20b8 <__gnu_Unwind_Resume+0x68>
    207c:	e5903010 	ldr	r3, [r0, #16]
    2080:	e1a01004 	mov	r1, r4
    2084:	e3a00002 	mov	r0, #2
    2088:	e1a02005 	mov	r2, r5
    208c:	e12fff33 	blx	r3
    2090:	e3500007 	cmp	r0, #7
    2094:	0a000002 	beq	20a4 <__gnu_Unwind_Resume+0x54>
    2098:	e3500008 	cmp	r0, #8
    209c:	1a000005 	bne	20b8 <__gnu_Unwind_Resume+0x68>
    20a0:	ea000001 	b	20ac <__gnu_Unwind_Resume+0x5c>
    20a4:	e2850004 	add	r0, r5, #4
    20a8:	eb000044 	bl	21c0 <__restore_core_regs>
    20ac:	e1a00004 	mov	r0, r4
    20b0:	e1a01005 	mov	r1, r5
    20b4:	ebfffda5 	bl	1750 <Java_com_geohot_activeroot_ActiveRoot_rootTheShit+0x3d4>
    20b8:	ebfffbfa 	bl	10a8 <test-0x4c>

000020bc <__gnu_Unwind_Resume_or_Rethrow>:
    20bc:	e590200c 	ldr	r2, [r0, #12]
    20c0:	e3520000 	cmp	r2, #0
    20c4:	1a000000 	bne	20cc <__gnu_Unwind_Resume_or_Rethrow+0x10>
    20c8:	eaffffb0 	b	1f90 <__gnu_Unwind_RaiseException>
    20cc:	e591203c 	ldr	r2, [r1, #60]	; 0x3c
    20d0:	e5812040 	str	r2, [r1, #64]	; 0x40
    20d4:	e3a02000 	mov	r2, #0
    20d8:	eafffd57 	b	163c <Java_com_geohot_activeroot_ActiveRoot_rootTheShit+0x2c0>

000020dc <_Unwind_Complete>:
    20dc:	e12fff1e 	bx	lr

000020e0 <_Unwind_DeleteException>:
    20e0:	e92d4008 	push	{r3, lr}
    20e4:	e5903008 	ldr	r3, [r0, #8]
    20e8:	e1a01000 	mov	r1, r0
    20ec:	e3530000 	cmp	r3, #0
    20f0:	08bd8008 	popeq	{r3, pc}
    20f4:	e3a00001 	mov	r0, #1
    20f8:	e12fff33 	blx	r3
    20fc:	e8bd8008 	pop	{r3, pc}

00002100 <__gnu_Unwind_Backtrace>:
    2100:	e92d4070 	push	{r4, r5, r6, lr}
    2104:	e592303c 	ldr	r3, [r2, #60]	; 0x3c
    2108:	e282e004 	add	lr, r2, #4
    210c:	e5823040 	str	r3, [r2, #64]	; 0x40
    2110:	e1a05000 	mov	r5, r0
    2114:	e1a04001 	mov	r4, r1
    2118:	e8be000f 	ldm	lr!, {r0, r1, r2, r3}
    211c:	e24ddfa6 	sub	sp, sp, #664	; 0x298
    2120:	e28dc05c 	add	ip, sp, #92	; 0x5c
    2124:	e8ac000f 	stmia	ip!, {r0, r1, r2, r3}
    2128:	e8be000f 	ldm	lr!, {r0, r1, r2, r3}
    212c:	e8ac000f 	stmia	ip!, {r0, r1, r2, r3}
    2130:	e8be000f 	ldm	lr!, {r0, r1, r2, r3}
    2134:	e8ac000f 	stmia	ip!, {r0, r1, r2, r3}
    2138:	e89e000f 	ldm	lr, {r0, r1, r2, r3}
    213c:	e88c000f 	stm	ip, {r0, r1, r2, r3}
    2140:	e3e03000 	mvn	r3, #0
    2144:	e58d3058 	str	r3, [sp, #88]	; 0x58
    2148:	e1a0000d 	mov	r0, sp
    214c:	e59d1098 	ldr	r1, [sp, #152]	; 0x98
    2150:	ebfffca9 	bl	13fc <Java_com_geohot_activeroot_ActiveRoot_rootTheShit+0x80>
    2154:	e3500000 	cmp	r0, #0
    2158:	1a000012 	bne	21a8 <__gnu_Unwind_Backtrace+0xa8>
    215c:	e28d0058 	add	r0, sp, #88	; 0x58
    2160:	e3a0100c 	mov	r1, #12
    2164:	e1a0200d 	mov	r2, sp
    2168:	ebfffdba 	bl	1858 <_Unwind_VRS_Set+0x44>
    216c:	e28d0058 	add	r0, sp, #88	; 0x58
    2170:	e1a01004 	mov	r1, r4
    2174:	e12fff35 	blx	r5
    2178:	e3500000 	cmp	r0, #0
    217c:	1a000009 	bne	21a8 <__gnu_Unwind_Backtrace+0xa8>
    2180:	e3a00008 	mov	r0, #8
    2184:	e1a0100d 	mov	r1, sp
    2188:	e28d2058 	add	r2, sp, #88	; 0x58
    218c:	e59d3010 	ldr	r3, [sp, #16]
    2190:	e12fff33 	blx	r3
    2194:	e3500009 	cmp	r0, #9
    2198:	13500005 	cmpne	r0, #5
    219c:	e1a06000 	mov	r6, r0
    21a0:	1affffe8 	bne	2148 <__gnu_Unwind_Backtrace+0x48>
    21a4:	ea000000 	b	21ac <__gnu_Unwind_Backtrace+0xac>
    21a8:	e3a06009 	mov	r6, #9
    21ac:	e28d0058 	add	r0, sp, #88	; 0x58
    21b0:	ebfffd06 	bl	15d0 <Java_com_geohot_activeroot_ActiveRoot_rootTheShit+0x254>
    21b4:	e1a00006 	mov	r0, r6
    21b8:	e28ddfa6 	add	sp, sp, #664	; 0x298
    21bc:	e8bd8070 	pop	{r4, r5, r6, pc}

000021c0 <__restore_core_regs>:
    21c0:	e2801034 	add	r1, r0, #52	; 0x34
    21c4:	e8910038 	ldm	r1, {r3, r4, r5}
    21c8:	e92d0038 	push	{r3, r4, r5}
    21cc:	e8900fff 	ldm	r0, {r0, r1, r2, r3, r4, r5, r6, r7, r8, r9, sl, fp}
    21d0:	e89de000 	ldm	sp, {sp, lr, pc}

000021d4 <__gnu_Unwind_Restore_VFP>:
    21d4:	ec900b21 	fldmiax	r0, {d0-d15}	;@ Deprecated
    21d8:	e12fff1e 	bx	lr

000021dc <__gnu_Unwind_Save_VFP>:
    21dc:	ec800b21 	fstmiax	r0, {d0-d15}	;@ Deprecated
    21e0:	e12fff1e 	bx	lr

000021e4 <__gnu_Unwind_Restore_VFP_D>:
    21e4:	ec900b20 	vldmia	r0, {d0-d15}
    21e8:	e12fff1e 	bx	lr

000021ec <__gnu_Unwind_Save_VFP_D>:
    21ec:	ec800b20 	vstmia	r0, {d0-d15}
    21f0:	e12fff1e 	bx	lr

000021f4 <__gnu_Unwind_Restore_VFP_D_16_to_31>:
    21f4:	ecd00b20 	vldmia	r0, {d16-d31}
    21f8:	e12fff1e 	bx	lr

000021fc <__gnu_Unwind_Save_VFP_D_16_to_31>:
    21fc:	ecc00b20 	vstmia	r0, {d16-d31}
    2200:	e12fff1e 	bx	lr

00002204 <__gnu_Unwind_Restore_WMMXD>:
    2204:	ecf00102 	ldfe	f0, [r0], #8
    2208:	ecf01102 	ldfe	f1, [r0], #8
    220c:	ecf02102 	ldfe	f2, [r0], #8
    2210:	ecf03102 	ldfe	f3, [r0], #8
    2214:	ecf04102 	ldfe	f4, [r0], #8
    2218:	ecf05102 	ldfe	f5, [r0], #8
    221c:	ecf06102 	ldfe	f6, [r0], #8
    2220:	ecf07102 	ldfe	f7, [r0], #8
    2224:	ecf08102 	ldfp	f0, [r0], #8
    2228:	ecf09102 	ldfp	f1, [r0], #8
    222c:	ecf0a102 	ldfp	f2, [r0], #8
    2230:	ecf0b102 	ldfp	f3, [r0], #8
    2234:	ecf0c102 	ldfp	f4, [r0], #8
    2238:	ecf0d102 	ldfp	f5, [r0], #8
    223c:	ecf0e102 	ldfp	f6, [r0], #8
    2240:	ecf0f102 	ldfp	f7, [r0], #8
    2244:	e12fff1e 	bx	lr

00002248 <__gnu_Unwind_Save_WMMXD>:
    2248:	ece00102 	stfe	f0, [r0], #8
    224c:	ece01102 	stfe	f1, [r0], #8
    2250:	ece02102 	stfe	f2, [r0], #8
    2254:	ece03102 	stfe	f3, [r0], #8
    2258:	ece04102 	stfe	f4, [r0], #8
    225c:	ece05102 	stfe	f5, [r0], #8
    2260:	ece06102 	stfe	f6, [r0], #8
    2264:	ece07102 	stfe	f7, [r0], #8
    2268:	ece08102 	stfp	f0, [r0], #8
    226c:	ece09102 	stfp	f1, [r0], #8
    2270:	ece0a102 	stfp	f2, [r0], #8
    2274:	ece0b102 	stfp	f3, [r0], #8
    2278:	ece0c102 	stfp	f4, [r0], #8
    227c:	ece0d102 	stfp	f5, [r0], #8
    2280:	ece0e102 	stfp	f6, [r0], #8
    2284:	ece0f102 	stfp	f7, [r0], #8
    2288:	e12fff1e 	bx	lr

0000228c <__gnu_Unwind_Restore_WMMXC>:
    228c:	fcb08101 	ldc2	1, cr8, [r0], #4
    2290:	fcb09101 	ldc2	1, cr9, [r0], #4
    2294:	fcb0a101 	ldc2	1, cr10, [r0], #4
    2298:	fcb0b101 	ldc2	1, cr11, [r0], #4
    229c:	e12fff1e 	bx	lr

000022a0 <__gnu_Unwind_Save_WMMXC>:
    22a0:	fca08101 	stc2	1, cr8, [r0], #4
    22a4:	fca09101 	stc2	1, cr9, [r0], #4
    22a8:	fca0a101 	stc2	1, cr10, [r0], #4
    22ac:	fca0b101 	stc2	1, cr11, [r0], #4
    22b0:	e12fff1e 	bx	lr

000022b4 <_Unwind_RaiseException>:
    22b4:	e92de000 	push	{sp, lr, pc}
    22b8:	e92d1fff 	push	{r0, r1, r2, r3, r4, r5, r6, r7, r8, r9, sl, fp, ip}
    22bc:	e3a03000 	mov	r3, #0
    22c0:	e92d000c 	push	{r2, r3}
    22c4:	e28d1004 	add	r1, sp, #4
    22c8:	ebffff30 	bl	1f90 <__gnu_Unwind_RaiseException>
    22cc:	e59de040 	ldr	lr, [sp, #64]	; 0x40
    22d0:	e28dd048 	add	sp, sp, #72	; 0x48
    22d4:	e12fff1e 	bx	lr

000022d8 <_Unwind_Resume>:
    22d8:	e92de000 	push	{sp, lr, pc}
    22dc:	e92d1fff 	push	{r0, r1, r2, r3, r4, r5, r6, r7, r8, r9, sl, fp, ip}
    22e0:	e3a03000 	mov	r3, #0
    22e4:	e92d000c 	push	{r2, r3}
    22e8:	e28d1004 	add	r1, sp, #4
    22ec:	ebffff57 	bl	2050 <__gnu_Unwind_Resume>
    22f0:	e59de040 	ldr	lr, [sp, #64]	; 0x40
    22f4:	e28dd048 	add	sp, sp, #72	; 0x48
    22f8:	e12fff1e 	bx	lr

000022fc <_Unwind_Resume_or_Rethrow>:
    22fc:	e92de000 	push	{sp, lr, pc}
    2300:	e92d1fff 	push	{r0, r1, r2, r3, r4, r5, r6, r7, r8, r9, sl, fp, ip}
    2304:	e3a03000 	mov	r3, #0
    2308:	e92d000c 	push	{r2, r3}
    230c:	e28d1004 	add	r1, sp, #4
    2310:	ebffff69 	bl	20bc <__gnu_Unwind_Resume_or_Rethrow>
    2314:	e59de040 	ldr	lr, [sp, #64]	; 0x40
    2318:	e28dd048 	add	sp, sp, #72	; 0x48
    231c:	e12fff1e 	bx	lr

00002320 <_Unwind_ForcedUnwind>:
    2320:	e92de000 	push	{sp, lr, pc}
    2324:	e92d1fff 	push	{r0, r1, r2, r3, r4, r5, r6, r7, r8, r9, sl, fp, ip}
    2328:	e3a03000 	mov	r3, #0
    232c:	e92d000c 	push	{r2, r3}
    2330:	e28d3004 	add	r3, sp, #4
    2334:	ebffff3e 	bl	2034 <__gnu_Unwind_ForcedUnwind>
    2338:	e59de040 	ldr	lr, [sp, #64]	; 0x40
    233c:	e28dd048 	add	sp, sp, #72	; 0x48
    2340:	e12fff1e 	bx	lr

00002344 <_Unwind_Backtrace>:
    2344:	e92de000 	push	{sp, lr, pc}
    2348:	e92d1fff 	push	{r0, r1, r2, r3, r4, r5, r6, r7, r8, r9, sl, fp, ip}
    234c:	e3a03000 	mov	r3, #0
    2350:	e92d000c 	push	{r2, r3}
    2354:	e28d2004 	add	r2, sp, #4
    2358:	ebffff68 	bl	2100 <__gnu_Unwind_Backtrace>
    235c:	e59de040 	ldr	lr, [sp, #64]	; 0x40
    2360:	e28dd048 	add	sp, sp, #72	; 0x48
    2364:	e12fff1e 	bx	lr
    2368:	e5d02008 	ldrb	r2, [r0, #8]
    236c:	e1a03000 	mov	r3, r0
    2370:	e3520000 	cmp	r2, #0
    2374:	12422001 	subne	r2, r2, #1
    2378:	1a000008 	bne	23a0 <_Unwind_Backtrace+0x5c>
    237c:	e5d02009 	ldrb	r2, [r0, #9]
    2380:	e3520000 	cmp	r2, #0
    2384:	0a00000b 	beq	23b8 <_Unwind_Backtrace+0x74>
    2388:	e2422001 	sub	r2, r2, #1
    238c:	e5c02009 	strb	r2, [r0, #9]
    2390:	e5902004 	ldr	r2, [r0, #4]
    2394:	e4921004 	ldr	r1, [r2], #4
    2398:	e8800006 	stm	r0, {r1, r2}
    239c:	e3a02003 	mov	r2, #3
    23a0:	e5c32008 	strb	r2, [r3, #8]
    23a4:	e5932000 	ldr	r2, [r3]
    23a8:	e1a00c22 	lsr	r0, r2, #24
    23ac:	e1a02402 	lsl	r2, r2, #8
    23b0:	e5832000 	str	r2, [r3]
    23b4:	e12fff1e 	bx	lr
    23b8:	e3a000b0 	mov	r0, #176	; 0xb0
    23bc:	e12fff1e 	bx	lr

000023c0 <__gnu_unwind_execute>:
    23c0:	e92d47ff 	push	{r0, r1, r2, r3, r4, r5, r6, r7, r8, r9, sl, lr}
    23c4:	e1a05000 	mov	r5, r0
    23c8:	e1a06001 	mov	r6, r1
    23cc:	e3a07000 	mov	r7, #0
    23d0:	e28da00c 	add	sl, sp, #12
    23d4:	e3a09eff 	mov	r9, #4080	; 0xff0
    23d8:	e1a00006 	mov	r0, r6
    23dc:	ebffffe1 	bl	2368 <_Unwind_Backtrace+0x24>
    23e0:	e35000b0 	cmp	r0, #176	; 0xb0
    23e4:	e1a04000 	mov	r4, r0
    23e8:	1a000011 	bne	2434 <__gnu_unwind_execute+0x74>
    23ec:	e3570000 	cmp	r7, #0
    23f0:	13a00000 	movne	r0, #0
    23f4:	1a0000d4 	bne	274c <__gnu_unwind_execute+0x38c>
    23f8:	e28d400c 	add	r4, sp, #12
    23fc:	e1a01007 	mov	r1, r7
    2400:	e3a0200e 	mov	r2, #14
    2404:	e1a03007 	mov	r3, r7
    2408:	e1a00005 	mov	r0, r5
    240c:	e58d4000 	str	r4, [sp]
    2410:	ebfffce4 	bl	17a8 <_Unwind_VRS_Get>
    2414:	e1a00005 	mov	r0, r5
    2418:	e1a01007 	mov	r1, r7
    241c:	e3a0200f 	mov	r2, #15
    2420:	e1a03007 	mov	r3, r7
    2424:	e58d4000 	str	r4, [sp]
    2428:	ebfffcf9 	bl	1814 <_Unwind_VRS_Set>
    242c:	e1a00007 	mov	r0, r7
    2430:	ea0000c5 	b	274c <__gnu_unwind_execute+0x38c>
    2434:	e2101080 	ands	r1, r0, #128	; 0x80
    2438:	1a000010 	bne	2480 <__gnu_unwind_execute+0xc0>
    243c:	e1a03001 	mov	r3, r1
    2440:	e1a08100 	lsl	r8, r0, #2
    2444:	e3a0200d 	mov	r2, #13
    2448:	e1a00005 	mov	r0, r5
    244c:	e20880ff 	and	r8, r8, #255	; 0xff
    2450:	e58da000 	str	sl, [sp]
    2454:	ebfffcd3 	bl	17a8 <_Unwind_VRS_Get>
    2458:	e59d300c 	ldr	r3, [sp, #12]
    245c:	e2888004 	add	r8, r8, #4
    2460:	e3140040 	tst	r4, #64	; 0x40
    2464:	10688003 	rsbne	r8, r8, r3
    2468:	00838008 	addeq	r8, r3, r8
    246c:	e58d800c 	str	r8, [sp, #12]
    2470:	e58da000 	str	sl, [sp]
    2474:	e1a00005 	mov	r0, r5
    2478:	e3a01000 	mov	r1, #0
    247c:	ea000024 	b	2514 <__gnu_unwind_execute+0x154>
    2480:	e20030f0 	and	r3, r0, #240	; 0xf0
    2484:	e3530080 	cmp	r3, #128	; 0x80
    2488:	1a000011 	bne	24d4 <__gnu_unwind_execute+0x114>
    248c:	e1a04400 	lsl	r4, r0, #8
    2490:	e1a00006 	mov	r0, r6
    2494:	ebffffb3 	bl	2368 <_Unwind_Backtrace+0x24>
    2498:	e1804004 	orr	r4, r0, r4
    249c:	e3540902 	cmp	r4, #32768	; 0x8000
    24a0:	0a0000a8 	beq	2748 <__gnu_unwind_execute+0x388>
    24a4:	e3a01000 	mov	r1, #0
    24a8:	e1a02a04 	lsl	r2, r4, #20
    24ac:	e1a00005 	mov	r0, r5
    24b0:	e1a02822 	lsr	r2, r2, #16
    24b4:	e1a03001 	mov	r3, r1
    24b8:	ebfffddc 	bl	1c30 <_Unwind_VRS_Pop>
    24bc:	e1a08204 	lsl	r8, r4, #4
    24c0:	e3500000 	cmp	r0, #0
    24c4:	1a00009f 	bne	2748 <__gnu_unwind_execute+0x388>
    24c8:	e3180902 	tst	r8, #32768	; 0x8000
    24cc:	13a07001 	movne	r7, #1
    24d0:	eaffffc0 	b	23d8 <__gnu_unwind_execute+0x18>
    24d4:	e3530090 	cmp	r3, #144	; 0x90
    24d8:	1a000011 	bne	2524 <__gnu_unwind_execute+0x164>
    24dc:	e200200f 	and	r2, r0, #15
    24e0:	e352000d 	cmp	r2, #13
    24e4:	1352000f 	cmpne	r2, #15
    24e8:	13a08000 	movne	r8, #0
    24ec:	03a08001 	moveq	r8, #1
    24f0:	0a000094 	beq	2748 <__gnu_unwind_execute+0x388>
    24f4:	e1a01008 	mov	r1, r8
    24f8:	e1a00005 	mov	r0, r5
    24fc:	e1a03008 	mov	r3, r8
    2500:	e58da000 	str	sl, [sp]
    2504:	ebfffca7 	bl	17a8 <_Unwind_VRS_Get>
    2508:	e1a00005 	mov	r0, r5
    250c:	e1a01008 	mov	r1, r8
    2510:	e58da000 	str	sl, [sp]
    2514:	e3a0200d 	mov	r2, #13
    2518:	e1a03001 	mov	r3, r1
    251c:	ebfffcbc 	bl	1814 <_Unwind_VRS_Set>
    2520:	eaffffac 	b	23d8 <__gnu_unwind_execute+0x18>
    2524:	e35300a0 	cmp	r3, #160	; 0xa0
    2528:	1a000008 	bne	2550 <__gnu_unwind_execute+0x190>
    252c:	e1e02000 	mvn	r2, r0
    2530:	e2022007 	and	r2, r2, #7
    2534:	e1a02259 	asr	r2, r9, r2
    2538:	e3100008 	tst	r0, #8
    253c:	e2022eff 	and	r2, r2, #4080	; 0xff0
    2540:	13822901 	orrne	r2, r2, #16384	; 0x4000
    2544:	e1a00005 	mov	r0, r5
    2548:	e3a01000 	mov	r1, #0
    254c:	ea00005d 	b	26c8 <__gnu_unwind_execute+0x308>
    2550:	e35300b0 	cmp	r3, #176	; 0xb0
    2554:	1a00003b 	bne	2648 <__gnu_unwind_execute+0x288>
    2558:	e35000b1 	cmp	r0, #177	; 0xb1
    255c:	1a000007 	bne	2580 <__gnu_unwind_execute+0x1c0>
    2560:	e1a00006 	mov	r0, r6
    2564:	ebffff7f 	bl	2368 <_Unwind_Backtrace+0x24>
    2568:	e2502000 	subs	r2, r0, #0
    256c:	0a000075 	beq	2748 <__gnu_unwind_execute+0x388>
    2570:	e21210f0 	ands	r1, r2, #240	; 0xf0
    2574:	1a000073 	bne	2748 <__gnu_unwind_execute+0x388>
    2578:	e1a00005 	mov	r0, r5
    257c:	ea000051 	b	26c8 <__gnu_unwind_execute+0x308>
    2580:	e35000b2 	cmp	r0, #178	; 0xb2
    2584:	1a000018 	bne	25ec <__gnu_unwind_execute+0x22c>
    2588:	e3a01000 	mov	r1, #0
    258c:	e3a0200d 	mov	r2, #13
    2590:	e1a03001 	mov	r3, r1
    2594:	e1a00005 	mov	r0, r5
    2598:	e58da000 	str	sl, [sp]
    259c:	ebfffc81 	bl	17a8 <_Unwind_VRS_Get>
    25a0:	e1a00006 	mov	r0, r6
    25a4:	ebffff6f 	bl	2368 <_Unwind_Backtrace+0x24>
    25a8:	e3a04002 	mov	r4, #2
    25ac:	ea000004 	b	25c4 <__gnu_unwind_execute+0x204>
    25b0:	e0830410 	add	r0, r3, r0, lsl r4
    25b4:	e58d000c 	str	r0, [sp, #12]
    25b8:	e1a00006 	mov	r0, r6
    25bc:	e2844007 	add	r4, r4, #7
    25c0:	ebffff68 	bl	2368 <_Unwind_Backtrace+0x24>
    25c4:	e2101080 	ands	r1, r0, #128	; 0x80
    25c8:	e59d300c 	ldr	r3, [sp, #12]
    25cc:	e200007f 	and	r0, r0, #127	; 0x7f
    25d0:	1afffff6 	bne	25b0 <__gnu_unwind_execute+0x1f0>
    25d4:	e2833f81 	add	r3, r3, #516	; 0x204
    25d8:	e0830410 	add	r0, r3, r0, lsl r4
    25dc:	e58da000 	str	sl, [sp]
    25e0:	e58d000c 	str	r0, [sp, #12]
    25e4:	e1a00005 	mov	r0, r5
    25e8:	eaffffc9 	b	2514 <__gnu_unwind_execute+0x154>
    25ec:	e35000b3 	cmp	r0, #179	; 0xb3
    25f0:	1a000007 	bne	2614 <__gnu_unwind_execute+0x254>
    25f4:	e1a00006 	mov	r0, r6
    25f8:	ebffff5a 	bl	2368 <_Unwind_Backtrace+0x24>
    25fc:	e3a01001 	mov	r1, #1
    2600:	e200300f 	and	r3, r0, #15
    2604:	e20020f0 	and	r2, r0, #240	; 0xf0
    2608:	e2833001 	add	r3, r3, #1
    260c:	e1a00005 	mov	r0, r5
    2610:	ea000017 	b	2674 <__gnu_unwind_execute+0x2b4>
    2614:	e20030fc 	and	r3, r0, #252	; 0xfc
    2618:	e35300b4 	cmp	r3, #180	; 0xb4
    261c:	02004003 	andeq	r4, r0, #3
    2620:	12044007 	andne	r4, r4, #7
    2624:	02842001 	addeq	r2, r4, #1
    2628:	12842001 	addne	r2, r4, #1
    262c:	01a00005 	moveq	r0, r5
    2630:	03a01002 	moveq	r1, #2
    2634:	03822701 	orreq	r2, r2, #262144	; 0x40000
    2638:	11a00005 	movne	r0, r5
    263c:	13a01001 	movne	r1, #1
    2640:	13822702 	orrne	r2, r2, #524288	; 0x80000
    2644:	ea00001f 	b	26c8 <__gnu_unwind_execute+0x308>
    2648:	e35300c0 	cmp	r3, #192	; 0xc0
    264c:	1a000031 	bne	2718 <__gnu_unwind_execute+0x358>
    2650:	e35000c6 	cmp	r0, #198	; 0xc6
    2654:	1a000008 	bne	267c <__gnu_unwind_execute+0x2bc>
    2658:	e1a00006 	mov	r0, r6
    265c:	ebffff41 	bl	2368 <_Unwind_Backtrace+0x24>
    2660:	e3a01003 	mov	r1, #3
    2664:	e200300f 	and	r3, r0, #15
    2668:	e20020f0 	and	r2, r0, #240	; 0xf0
    266c:	e2833001 	add	r3, r3, #1
    2670:	e1a00005 	mov	r0, r5
    2674:	e1832602 	orr	r2, r3, r2, lsl #12
    2678:	ea000012 	b	26c8 <__gnu_unwind_execute+0x308>
    267c:	e35000c7 	cmp	r0, #199	; 0xc7
    2680:	1a000008 	bne	26a8 <__gnu_unwind_execute+0x2e8>
    2684:	e1a00006 	mov	r0, r6
    2688:	ebffff36 	bl	2368 <_Unwind_Backtrace+0x24>
    268c:	e2502000 	subs	r2, r0, #0
    2690:	0a00002c 	beq	2748 <__gnu_unwind_execute+0x388>
    2694:	e21230f0 	ands	r3, r2, #240	; 0xf0
    2698:	1a00002a 	bne	2748 <__gnu_unwind_execute+0x388>
    269c:	e1a00005 	mov	r0, r5
    26a0:	e3a01004 	mov	r1, #4
    26a4:	ea000024 	b	273c <__gnu_unwind_execute+0x37c>
    26a8:	e20030f8 	and	r3, r0, #248	; 0xf8
    26ac:	e35300c0 	cmp	r3, #192	; 0xc0
    26b0:	1a000006 	bne	26d0 <__gnu_unwind_execute+0x310>
    26b4:	e200400f 	and	r4, r0, #15
    26b8:	e2842001 	add	r2, r4, #1
    26bc:	e1a00005 	mov	r0, r5
    26c0:	e3a01003 	mov	r1, #3
    26c4:	e382280a 	orr	r2, r2, #655360	; 0xa0000
    26c8:	e1a03001 	mov	r3, r1
    26cc:	ea00001a 	b	273c <__gnu_unwind_execute+0x37c>
    26d0:	e35000c8 	cmp	r0, #200	; 0xc8
    26d4:	1a000004 	bne	26ec <__gnu_unwind_execute+0x32c>
    26d8:	e1a00006 	mov	r0, r6
    26dc:	ebffff21 	bl	2368 <_Unwind_Backtrace+0x24>
    26e0:	e20020f0 	and	r2, r0, #240	; 0xf0
    26e4:	e2822010 	add	r2, r2, #16
    26e8:	ea000004 	b	2700 <__gnu_unwind_execute+0x340>
    26ec:	e35000c9 	cmp	r0, #201	; 0xc9
    26f0:	1a000014 	bne	2748 <__gnu_unwind_execute+0x388>
    26f4:	e1a00006 	mov	r0, r6
    26f8:	ebffff1a 	bl	2368 <_Unwind_Backtrace+0x24>
    26fc:	e20020f0 	and	r2, r0, #240	; 0xf0
    2700:	e200300f 	and	r3, r0, #15
    2704:	e2833001 	add	r3, r3, #1
    2708:	e1a00005 	mov	r0, r5
    270c:	e3a01001 	mov	r1, #1
    2710:	e1832602 	orr	r2, r3, r2, lsl #12
    2714:	ea000007 	b	2738 <__gnu_unwind_execute+0x378>
    2718:	e20030f8 	and	r3, r0, #248	; 0xf8
    271c:	e35300d0 	cmp	r3, #208	; 0xd0
    2720:	1a000008 	bne	2748 <__gnu_unwind_execute+0x388>
    2724:	e2004007 	and	r4, r0, #7
    2728:	e2842001 	add	r2, r4, #1
    272c:	e1a00005 	mov	r0, r5
    2730:	e3a01001 	mov	r1, #1
    2734:	e3822702 	orr	r2, r2, #524288	; 0x80000
    2738:	e3a03005 	mov	r3, #5
    273c:	ebfffd3b 	bl	1c30 <_Unwind_VRS_Pop>
    2740:	e3500000 	cmp	r0, #0
    2744:	0affff23 	beq	23d8 <__gnu_unwind_execute+0x18>
    2748:	e3a00009 	mov	r0, #9
    274c:	e28dd010 	add	sp, sp, #16
    2750:	e8bd87f0 	pop	{r4, r5, r6, r7, r8, r9, sl, pc}

00002754 <__gnu_unwind_frame>:
    2754:	e92d401f 	push	{r0, r1, r2, r3, r4, lr}
    2758:	e590304c 	ldr	r3, [r0, #76]	; 0x4c
    275c:	e1a00001 	mov	r0, r1
    2760:	e5932004 	ldr	r2, [r3, #4]
    2764:	e28d1004 	add	r1, sp, #4
    2768:	e1a02402 	lsl	r2, r2, #8
    276c:	e58d2004 	str	r2, [sp, #4]
    2770:	e2832008 	add	r2, r3, #8
    2774:	e58d2008 	str	r2, [sp, #8]
    2778:	e3a02003 	mov	r2, #3
    277c:	e5cd200c 	strb	r2, [sp, #12]
    2780:	e5d33007 	ldrb	r3, [r3, #7]
    2784:	e5cd300d 	strb	r3, [sp, #13]
    2788:	ebffff0c 	bl	23c0 <__gnu_unwind_execute>
    278c:	e28dd014 	add	sp, sp, #20
    2790:	e8bd8000 	ldmfd	sp!, {pc}

00002794 <_Unwind_GetRegionStart>:
    2794:	e92d401f 	push	{r0, r1, r2, r3, r4, lr}
    2798:	e3a01000 	mov	r1, #0
    279c:	e28d300c 	add	r3, sp, #12
    27a0:	e58d3000 	str	r3, [sp]
    27a4:	e3a0200c 	mov	r2, #12
    27a8:	e1a03001 	mov	r3, r1
    27ac:	ebfffbfd 	bl	17a8 <_Unwind_VRS_Get>
    27b0:	e59d300c 	ldr	r3, [sp, #12]
    27b4:	e5930048 	ldr	r0, [r3, #72]	; 0x48
    27b8:	e28dd014 	add	sp, sp, #20
    27bc:	e8bd8000 	ldmfd	sp!, {pc}

000027c0 <_Unwind_GetLanguageSpecificData>:
    27c0:	e92d401f 	push	{r0, r1, r2, r3, r4, lr}
    27c4:	e3a01000 	mov	r1, #0
    27c8:	e28d300c 	add	r3, sp, #12
    27cc:	e58d3000 	str	r3, [sp]
    27d0:	e3a0200c 	mov	r2, #12
    27d4:	e1a03001 	mov	r3, r1
    27d8:	ebfffbf2 	bl	17a8 <_Unwind_VRS_Get>
    27dc:	e59d300c 	ldr	r3, [sp, #12]
    27e0:	e593304c 	ldr	r3, [r3, #76]	; 0x4c
    27e4:	e5d32007 	ldrb	r2, [r3, #7]
    27e8:	e0833102 	add	r3, r3, r2, lsl #2
    27ec:	e2830008 	add	r0, r3, #8
    27f0:	e28dd014 	add	sp, sp, #20
    27f4:	e8bd8000 	ldmfd	sp!, {pc}

000027f8 <_Unwind_GetDataRelBase>:
    27f8:	e92d4008 	push	{r3, lr}
    27fc:	ebfffa29 	bl	10a8 <test-0x4c>

00002800 <_Unwind_GetTextRelBase>:
    2800:	e92d4008 	push	{r3, lr}
    2804:	ebfffa27 	bl	10a8 <test-0x4c>
