
libexploit.so:     file format elf32-littlearm


Disassembly of section .plt:

00000f10 <.plt>:
     f10:	e52de004 	push	{lr}		; (str lr, [sp, #-4]!)
     f14:	e59fe004 	ldr	lr, [pc, #4]	; f20 <Java_com_geohot_towelroot_TowelRoot_rootTheShit-0x250>
     f18:	e08fe00e 	add	lr, pc, lr
     f1c:	e5bef008 	ldr	pc, [lr, #8]!
     f20:	00029e78 	andeq	r9, r2, r8, ror lr
     f24:	e28fc600 	add	ip, pc, #0, 12
     f28:	e28cca29 	add	ip, ip, #167936	; 0x29000
     f2c:	e5bcfe78 	ldr	pc, [ip, #3704]!	; 0xe78
     f30:	e28fc600 	add	ip, pc, #0, 12
     f34:	e28cca29 	add	ip, ip, #167936	; 0x29000
     f38:	e5bcfe70 	ldr	pc, [ip, #3696]!	; 0xe70
     f3c:	e28fc600 	add	ip, pc, #0, 12
     f40:	e28cca29 	add	ip, ip, #167936	; 0x29000
     f44:	e5bcfe68 	ldr	pc, [ip, #3688]!	; 0xe68
     f48:	e28fc600 	add	ip, pc, #0, 12
     f4c:	e28cca29 	add	ip, ip, #167936	; 0x29000
     f50:	e5bcfe60 	ldr	pc, [ip, #3680]!	; 0xe60
     f54:	e28fc600 	add	ip, pc, #0, 12
     f58:	e28cca29 	add	ip, ip, #167936	; 0x29000
     f5c:	e5bcfe58 	ldr	pc, [ip, #3672]!	; 0xe58
     f60:	e28fc600 	add	ip, pc, #0, 12
     f64:	e28cca29 	add	ip, ip, #167936	; 0x29000
     f68:	e5bcfe50 	ldr	pc, [ip, #3664]!	; 0xe50
     f6c:	e28fc600 	add	ip, pc, #0, 12
     f70:	e28cca29 	add	ip, ip, #167936	; 0x29000
     f74:	e5bcfe48 	ldr	pc, [ip, #3656]!	; 0xe48
     f78:	e28fc600 	add	ip, pc, #0, 12
     f7c:	e28cca29 	add	ip, ip, #167936	; 0x29000
     f80:	e5bcfe40 	ldr	pc, [ip, #3648]!	; 0xe40
     f84:	e28fc600 	add	ip, pc, #0, 12
     f88:	e28cca29 	add	ip, ip, #167936	; 0x29000
     f8c:	e5bcfe38 	ldr	pc, [ip, #3640]!	; 0xe38
     f90:	e28fc600 	add	ip, pc, #0, 12
     f94:	e28cca29 	add	ip, ip, #167936	; 0x29000
     f98:	e5bcfe30 	ldr	pc, [ip, #3632]!	; 0xe30
     f9c:	e28fc600 	add	ip, pc, #0, 12
     fa0:	e28cca29 	add	ip, ip, #167936	; 0x29000
     fa4:	e5bcfe28 	ldr	pc, [ip, #3624]!	; 0xe28
     fa8:	e28fc600 	add	ip, pc, #0, 12
     fac:	e28cca29 	add	ip, ip, #167936	; 0x29000
     fb0:	e5bcfe20 	ldr	pc, [ip, #3616]!	; 0xe20
     fb4:	e28fc600 	add	ip, pc, #0, 12
     fb8:	e28cca29 	add	ip, ip, #167936	; 0x29000
     fbc:	e5bcfe18 	ldr	pc, [ip, #3608]!	; 0xe18
     fc0:	e28fc600 	add	ip, pc, #0, 12
     fc4:	e28cca29 	add	ip, ip, #167936	; 0x29000
     fc8:	e5bcfe10 	ldr	pc, [ip, #3600]!	; 0xe10
     fcc:	e28fc600 	add	ip, pc, #0, 12
     fd0:	e28cca29 	add	ip, ip, #167936	; 0x29000
     fd4:	e5bcfe08 	ldr	pc, [ip, #3592]!	; 0xe08
     fd8:	e28fc600 	add	ip, pc, #0, 12
     fdc:	e28cca29 	add	ip, ip, #167936	; 0x29000
     fe0:	e5bcfe00 	ldr	pc, [ip, #3584]!	; 0xe00
     fe4:	e28fc600 	add	ip, pc, #0, 12
     fe8:	e28cca29 	add	ip, ip, #167936	; 0x29000
     fec:	e5bcfdf8 	ldr	pc, [ip, #3576]!	; 0xdf8
     ff0:	e28fc600 	add	ip, pc, #0, 12
     ff4:	e28cca29 	add	ip, ip, #167936	; 0x29000
     ff8:	e5bcfdf0 	ldr	pc, [ip, #3568]!	; 0xdf0
     ffc:	e28fc600 	add	ip, pc, #0, 12
    1000:	e28cca29 	add	ip, ip, #167936	; 0x29000
    1004:	e5bcfde8 	ldr	pc, [ip, #3560]!	; 0xde8
    1008:	e28fc600 	add	ip, pc, #0, 12
    100c:	e28cca29 	add	ip, ip, #167936	; 0x29000
    1010:	e5bcfde0 	ldr	pc, [ip, #3552]!	; 0xde0
    1014:	e28fc600 	add	ip, pc, #0, 12
    1018:	e28cca29 	add	ip, ip, #167936	; 0x29000
    101c:	e5bcfdd8 	ldr	pc, [ip, #3544]!	; 0xdd8
    1020:	e28fc600 	add	ip, pc, #0, 12
    1024:	e28cca29 	add	ip, ip, #167936	; 0x29000
    1028:	e5bcfdd0 	ldr	pc, [ip, #3536]!	; 0xdd0
    102c:	e28fc600 	add	ip, pc, #0, 12
    1030:	e28cca29 	add	ip, ip, #167936	; 0x29000
    1034:	e5bcfdc8 	ldr	pc, [ip, #3528]!	; 0xdc8
    1038:	e28fc600 	add	ip, pc, #0, 12
    103c:	e28cca29 	add	ip, ip, #167936	; 0x29000
    1040:	e5bcfdc0 	ldr	pc, [ip, #3520]!	; 0xdc0
    1044:	e28fc600 	add	ip, pc, #0, 12
    1048:	e28cca29 	add	ip, ip, #167936	; 0x29000
    104c:	e5bcfdb8 	ldr	pc, [ip, #3512]!	; 0xdb8
    1050:	e28fc600 	add	ip, pc, #0, 12
    1054:	e28cca29 	add	ip, ip, #167936	; 0x29000
    1058:	e5bcfdb0 	ldr	pc, [ip, #3504]!	; 0xdb0
    105c:	e28fc600 	add	ip, pc, #0, 12
    1060:	e28cca29 	add	ip, ip, #167936	; 0x29000
    1064:	e5bcfda8 	ldr	pc, [ip, #3496]!	; 0xda8
    1068:	e28fc600 	add	ip, pc, #0, 12
    106c:	e28cca29 	add	ip, ip, #167936	; 0x29000
    1070:	e5bcfda0 	ldr	pc, [ip, #3488]!	; 0xda0
    1074:	e28fc600 	add	ip, pc, #0, 12
    1078:	e28cca29 	add	ip, ip, #167936	; 0x29000
    107c:	e5bcfd98 	ldr	pc, [ip, #3480]!	; 0xd98
    1080:	e28fc600 	add	ip, pc, #0, 12
    1084:	e28cca29 	add	ip, ip, #167936	; 0x29000
    1088:	e5bcfd90 	ldr	pc, [ip, #3472]!	; 0xd90
    108c:	e28fc600 	add	ip, pc, #0, 12
    1090:	e28cca29 	add	ip, ip, #167936	; 0x29000
    1094:	e5bcfd88 	ldr	pc, [ip, #3464]!	; 0xd88
    1098:	e28fc600 	add	ip, pc, #0, 12
    109c:	e28cca29 	add	ip, ip, #167936	; 0x29000
    10a0:	e5bcfd80 	ldr	pc, [ip, #3456]!	; 0xd80
    10a4:	e28fc600 	add	ip, pc, #0, 12
    10a8:	e28cca29 	add	ip, ip, #167936	; 0x29000
    10ac:	e5bcfd78 	ldr	pc, [ip, #3448]!	; 0xd78
    10b0:	e28fc600 	add	ip, pc, #0, 12
    10b4:	e28cca29 	add	ip, ip, #167936	; 0x29000
    10b8:	e5bcfd70 	ldr	pc, [ip, #3440]!	; 0xd70
    10bc:	e28fc600 	add	ip, pc, #0, 12
    10c0:	e28cca29 	add	ip, ip, #167936	; 0x29000
    10c4:	e5bcfd68 	ldr	pc, [ip, #3432]!	; 0xd68
    10c8:	e28fc600 	add	ip, pc, #0, 12
    10cc:	e28cca29 	add	ip, ip, #167936	; 0x29000
    10d0:	e5bcfd60 	ldr	pc, [ip, #3424]!	; 0xd60
    10d4:	e28fc600 	add	ip, pc, #0, 12
    10d8:	e28cca29 	add	ip, ip, #167936	; 0x29000
    10dc:	e5bcfd58 	ldr	pc, [ip, #3416]!	; 0xd58
    10e0:	e28fc600 	add	ip, pc, #0, 12
    10e4:	e28cca29 	add	ip, ip, #167936	; 0x29000
    10e8:	e5bcfd50 	ldr	pc, [ip, #3408]!	; 0xd50
    10ec:	e28fc600 	add	ip, pc, #0, 12
    10f0:	e28cca29 	add	ip, ip, #167936	; 0x29000
    10f4:	e5bcfd48 	ldr	pc, [ip, #3400]!	; 0xd48
    10f8:	e28fc600 	add	ip, pc, #0, 12
    10fc:	e28cca29 	add	ip, ip, #167936	; 0x29000
    1100:	e5bcfd40 	ldr	pc, [ip, #3392]!	; 0xd40
    1104:	e28fc600 	add	ip, pc, #0, 12
    1108:	e28cca29 	add	ip, ip, #167936	; 0x29000
    110c:	e5bcfd38 	ldr	pc, [ip, #3384]!	; 0xd38
    1110:	e28fc600 	add	ip, pc, #0, 12
    1114:	e28cca29 	add	ip, ip, #167936	; 0x29000
    1118:	e5bcfd30 	ldr	pc, [ip, #3376]!	; 0xd30
    111c:	e28fc600 	add	ip, pc, #0, 12
    1120:	e28cca29 	add	ip, ip, #167936	; 0x29000
    1124:	e5bcfd28 	ldr	pc, [ip, #3368]!	; 0xd28
    1128:	e28fc600 	add	ip, pc, #0, 12
    112c:	e28cca29 	add	ip, ip, #167936	; 0x29000
    1130:	e5bcfd20 	ldr	pc, [ip, #3360]!	; 0xd20
    1134:	e28fc600 	add	ip, pc, #0, 12
    1138:	e28cca29 	add	ip, ip, #167936	; 0x29000
    113c:	e5bcfd18 	ldr	pc, [ip, #3352]!	; 0xd18
    1140:	e28fc600 	add	ip, pc, #0, 12
    1144:	e28cca29 	add	ip, ip, #167936	; 0x29000
    1148:	e5bcfd10 	ldr	pc, [ip, #3344]!	; 0xd10
    114c:	e28fc600 	add	ip, pc, #0, 12
    1150:	e28cca29 	add	ip, ip, #167936	; 0x29000
    1154:	e5bcfd08 	ldr	pc, [ip, #3336]!	; 0xd08
    1158:	e28fc600 	add	ip, pc, #0, 12
    115c:	e28cca29 	add	ip, ip, #167936	; 0x29000
    1160:	e5bcfd00 	ldr	pc, [ip, #3328]!	; 0xd00
    1164:	e28fc600 	add	ip, pc, #0, 12
    1168:	e28cca29 	add	ip, ip, #167936	; 0x29000
    116c:	e5bcfcf8 	ldr	pc, [ip, #3320]!	; 0xcf8

Disassembly of section .text:

00001170 <Java_com_geohot_towelroot_TowelRoot_rootTheShit>:
    1170:	e92d4ff0 	push	{r4, r5, r6, r7, r8, r9, sl, fp, lr}
    1174:	e28db01c 	add	fp, sp, #28
    1178:	e24dd0d4 	sub	sp, sp, #212	; 0xd4
    117c:	e58d0000 	str	r0, [sp]
    1180:	eb00004e 	bl	12c0 <Java_com_geohot_towelroot_TowelRoot_rootTheShit+0x150>
    1184:	e3a00000 	mov	r0, #0
    1188:	e59f112c 	ldr	r1, [pc, #300]	; 12bc <Java_com_geohot_towelroot_TowelRoot_rootTheShit+0x14c>
    118c:	e50b0020 	str	r0, [fp, #-32]
    1190:	e3012c1f 	movw	r2, #7199	; 0x1c1f
    1194:	e59f011c 	ldr	r0, [pc, #284]	; 12b8 <Java_com_geohot_towelroot_TowelRoot_rootTheShit+0x148>
    1198:	e3004441 	movw	r4, #1089	; 0x441
    119c:	e30470fa 	movw	r7, #16634	; 0x40fa
    11a0:	e3028be9 	movw	r8, #11241	; 0x2be9
    11a4:	e08f0000 	add	r0, pc, r0
    11a8:	e3029ebc 	movw	r9, #11964	; 0x2ebc
    11ac:	e0815000 	add	r5, r1, r0
    11b0:	e59f00f8 	ldr	r0, [pc, #248]	; 12b0 <Java_com_geohot_towelroot_TowelRoot_rootTheShit+0x140>
    11b4:	e59f10f8 	ldr	r1, [pc, #248]	; 12b4 <Java_com_geohot_towelroot_TowelRoot_rootTheShit+0x144>
    11b8:	e300a442 	movw	sl, #1090	; 0x442
    11bc:	e08f0000 	add	r0, pc, r0
    11c0:	e3462a30 	movt	r2, #27184	; 0x6a30
    11c4:	e28d6008 	add	r6, sp, #8
    11c8:	e0810000 	add	r0, r1, r0
    11cc:	e343422f 	movt	r4, #12847	; 0x322f
    11d0:	e34d7fb0 	movt	r7, #57264	; 0xdfb0
    11d4:	e342829a 	movt	r8, #8858	; 0x229a
    11d8:	e3449021 	movt	r9, #16417	; 0x4021
    11dc:	e343a22f 	movt	sl, #12847	; 0x322f
    11e0:	e1a01002 	mov	r1, r2
    11e4:	e58d0004 	str	r0, [sp, #4]
    11e8:	ea000005 	b	1204 <Java_com_geohot_towelroot_TowelRoot_rootTheShit+0x94>
    11ec:	e1a00006 	mov	r0, r6
    11f0:	e1a01005 	mov	r1, r5
    11f4:	e3a020ba 	mov	r2, #186	; 0xba
    11f8:	ebffff49 	bl	f24 <Java_com_geohot_towelroot_TowelRoot_rootTheShit-0x24c>
    11fc:	e3001062 	movw	r1, #98	; 0x62
    1200:	e346167c 	movt	r1, #26236	; 0x667c
    1204:	e1a00001 	mov	r0, r1
    1208:	e1500004 	cmp	r0, r4
    120c:	ca000002 	bgt	121c <Java_com_geohot_towelroot_TowelRoot_rootTheShit+0xac>
    1210:	e1500007 	cmp	r0, r7
    1214:	1a000015 	bne	1270 <Java_com_geohot_towelroot_TowelRoot_rootTheShit+0x100>
    1218:	eafffff3 	b	11ec <Java_com_geohot_towelroot_TowelRoot_rootTheShit+0x7c>
    121c:	e1a0100a 	mov	r1, sl
    1220:	e1500009 	cmp	r0, r9
    1224:	0afffff6 	beq	1204 <Java_com_geohot_towelroot_TowelRoot_rootTheShit+0x94>
    1228:	e150000a 	cmp	r0, sl
    122c:	1a000005 	bne	1248 <Java_com_geohot_towelroot_TowelRoot_rootTheShit+0xd8>
    1230:	e59d1004 	ldr	r1, [sp, #4]
    1234:	e1a00006 	mov	r0, r6
    1238:	e3a02020 	mov	r2, #32
    123c:	ebffff38 	bl	f24 <Java_com_geohot_towelroot_TowelRoot_rootTheShit-0x24c>
    1240:	e1a01008 	mov	r1, r8
    1244:	eaffffee 	b	1204 <Java_com_geohot_towelroot_TowelRoot_rootTheShit+0x94>
    1248:	e3011c1f 	movw	r1, #7199	; 0x1c1f
    124c:	e3461a30 	movt	r1, #27184	; 0x6a30
    1250:	e1500001 	cmp	r0, r1
    1254:	1a000005 	bne	1270 <Java_com_geohot_towelroot_TowelRoot_rootTheShit+0x100>
    1258:	e51b0020 	ldr	r0, [fp, #-32]
    125c:	e1a01009 	mov	r1, r9
    1260:	e3500000 	cmp	r0, #0
    1264:	030410fa 	movweq	r1, #16634	; 0x40fa
    1268:	034d1fb0 	movteq	r1, #57264	; 0xdfb0
    126c:	eaffffe4 	b	1204 <Java_com_geohot_towelroot_TowelRoot_rootTheShit+0x94>
    1270:	e3001062 	movw	r1, #98	; 0x62
    1274:	e1500008 	cmp	r0, r8
    1278:	e346167c 	movt	r1, #26236	; 0x667c
    127c:	0affffe0 	beq	1204 <Java_com_geohot_towelroot_TowelRoot_rootTheShit+0x94>
    1280:	e3001062 	movw	r1, #98	; 0x62
    1284:	e346167c 	movt	r1, #26236	; 0x667c
    1288:	e1500001 	cmp	r0, r1
    128c:	1a000006 	bne	12ac <Java_com_geohot_towelroot_TowelRoot_rootTheShit+0x13c>
    1290:	e59d0000 	ldr	r0, [sp]
    1294:	e5901000 	ldr	r1, [r0]
    1298:	e591229c 	ldr	r2, [r1, #668]	; 0x29c
    129c:	e28d1008 	add	r1, sp, #8
    12a0:	e12fff32 	blx	r2
    12a4:	e24bd01c 	sub	sp, fp, #28
    12a8:	e8bd8ff0 	pop	{r4, r5, r6, r7, r8, r9, sl, fp, pc}
    12ac:	eafffffe 	b	12ac <Java_com_geohot_towelroot_TowelRoot_rootTheShit+0x13c>
    12b0:	00029bd4 	ldrdeq	r9, [r2], -r4
    12b4:	fffe1bab 			; <UNDEFINED> instruction: 0xfffe1bab
    12b8:	00029bec 	andeq	r9, r2, ip, ror #23
    12bc:	fffe1af1 			; <UNDEFINED> instruction: 0xfffe1af1
    12c0:	e92d4ff0 	push	{r4, r5, r6, r7, r8, r9, sl, fp, lr}
    12c4:	e28db01c 	add	fp, sp, #28
    12c8:	e24dd054 	sub	sp, sp, #84	; 0x54
    12cc:	e59f057c 	ldr	r0, [pc, #1404]	; 1850 <Java_com_geohot_towelroot_TowelRoot_rootTheShit+0x6e0>
    12d0:	e30d2643 	movw	r2, #54851	; 0xd643
    12d4:	e59f1578 	ldr	r1, [pc, #1400]	; 1854 <Java_com_geohot_towelroot_TowelRoot_rootTheShit+0x6e4>
    12d8:	e30eae5c 	movw	sl, #61020	; 0xee5c
    12dc:	e59f3574 	ldr	r3, [pc, #1396]	; 1858 <Java_com_geohot_towelroot_TowelRoot_rootTheShit+0x6e8>
    12e0:	e08f0000 	add	r0, pc, r0
    12e4:	e0811000 	add	r1, r1, r0
    12e8:	e50b1038 	str	r1, [fp, #-56]	; 0x38
    12ec:	e0830000 	add	r0, r3, r0
    12f0:	e50b003c 	str	r0, [fp, #-60]	; 0x3c
    12f4:	e59f059c 	ldr	r0, [pc, #1436]	; 1898 <Java_com_geohot_towelroot_TowelRoot_rootTheShit+0x728>
    12f8:	e308915e 	movw	r9, #33118	; 0x815e
    12fc:	e59f155c 	ldr	r1, [pc, #1372]	; 1860 <Java_com_geohot_towelroot_TowelRoot_rootTheShit+0x6f0>
    1300:	e30e42a4 	movw	r4, #58020	; 0xe2a4
    1304:	e08f0000 	add	r0, pc, r0
    1308:	e50b0040 	str	r0, [fp, #-64]	; 0x40
    130c:	e0811000 	add	r1, r1, r0
    1310:	e50b1044 	str	r1, [fp, #-68]	; 0x44
    1314:	e59f1548 	ldr	r1, [pc, #1352]	; 1864 <Java_com_geohot_towelroot_TowelRoot_rootTheShit+0x6f4>
    1318:	e3095a76 	movw	r5, #39542	; 0x9a76
    131c:	e30e82a5 	movw	r8, #58021	; 0xe2a5
    1320:	e308715f 	movw	r7, #33119	; 0x815f
    1324:	e0811000 	add	r1, r1, r0
    1328:	e50b1048 	str	r1, [fp, #-72]	; 0x48
    132c:	e59f1534 	ldr	r1, [pc, #1332]	; 1868 <Java_com_geohot_towelroot_TowelRoot_rootTheShit+0x6f8>
    1330:	e30e6e5d 	movw	r6, #61021	; 0xee5d
    1334:	e34a2f34 	movt	r2, #44852	; 0xaf34
    1338:	e347a94c 	movt	sl, #31052	; 0x794c
    133c:	e0811000 	add	r1, r1, r0
    1340:	e50b104c 	str	r1, [fp, #-76]	; 0x4c
    1344:	e59f1520 	ldr	r1, [pc, #1312]	; 186c <Java_com_geohot_towelroot_TowelRoot_rootTheShit+0x6fc>
    1348:	e347922e 	movt	r9, #29230	; 0x722e
    134c:	e3464874 	movt	r4, #26740	; 0x6874
    1350:	e34457e1 	movt	r5, #18401	; 0x47e1
    1354:	e3468874 	movt	r8, #26740	; 0x6874
    1358:	e347722e 	movt	r7, #29230	; 0x722e
    135c:	e7910000 	ldr	r0, [r1, r0]
    1360:	e347694c 	movt	r6, #31052	; 0x794c
    1364:	e50b0050 	str	r0, [fp, #-80]	; 0x50
    1368:	e59f04ec 	ldr	r0, [pc, #1260]	; 185c <Java_com_geohot_towelroot_TowelRoot_rootTheShit+0x6ec>
    136c:	e59f151c 	ldr	r1, [pc, #1308]	; 1890 <Java_com_geohot_towelroot_TowelRoot_rootTheShit+0x720>
    1370:	e08f0000 	add	r0, pc, r0
    1374:	e50b005c 	str	r0, [fp, #-92]	; 0x5c
    1378:	e59f0514 	ldr	r0, [pc, #1300]	; 1894 <Java_com_geohot_towelroot_TowelRoot_rootTheShit+0x724>
    137c:	e08f0000 	add	r0, pc, r0
    1380:	e50b0060 	str	r0, [fp, #-96]	; 0x60
    1384:	e59f0500 	ldr	r0, [pc, #1280]	; 188c <Java_com_geohot_towelroot_TowelRoot_rootTheShit+0x71c>
    1388:	e08f0000 	add	r0, pc, r0
    138c:	e7910000 	ldr	r0, [r1, r0]
    1390:	e50b0064 	str	r0, [fp, #-100]	; 0x64
    1394:	e59f04e8 	ldr	r0, [pc, #1256]	; 1884 <Java_com_geohot_towelroot_TowelRoot_rootTheShit+0x714>
    1398:	e59f14e8 	ldr	r1, [pc, #1256]	; 1888 <Java_com_geohot_towelroot_TowelRoot_rootTheShit+0x718>
    139c:	e08f0000 	add	r0, pc, r0
    13a0:	e50b0030 	str	r0, [fp, #-48]	; 0x30
    13a4:	e0810000 	add	r0, r1, r0
    13a8:	e50b0034 	str	r0, [fp, #-52]	; 0x34
    13ac:	e1a00002 	mov	r0, r2
    13b0:	ea000001 	b	13bc <Java_com_geohot_towelroot_TowelRoot_rootTheShit+0x24c>
    13b4:	e3070637 	movw	r0, #30263	; 0x7637
    13b8:	e34103f9 	movt	r0, #5113	; 0x13f9
    13bc:	e150000a 	cmp	r0, sl
    13c0:	ca000012 	bgt	1410 <Java_com_geohot_towelroot_TowelRoot_rootTheShit+0x2a0>
    13c4:	e1500009 	cmp	r0, r9
    13c8:	ca000013 	bgt	141c <Java_com_geohot_towelroot_TowelRoot_rootTheShit+0x2ac>
    13cc:	e1500004 	cmp	r0, r4
    13d0:	ca00001c 	bgt	1448 <Java_com_geohot_towelroot_TowelRoot_rootTheShit+0x2d8>
    13d4:	e1500005 	cmp	r0, r5
    13d8:	ca000023 	bgt	146c <Java_com_geohot_towelroot_TowelRoot_rootTheShit+0x2fc>
    13dc:	e3001290 	movw	r1, #656	; 0x290
    13e0:	e3481774 	movt	r1, #34676	; 0x8774
    13e4:	e1500001 	cmp	r0, r1
    13e8:	ca000028 	bgt	1490 <Java_com_geohot_towelroot_TowelRoot_rootTheShit+0x320>
    13ec:	e3011af1 	movw	r1, #6897	; 0x1af1
    13f0:	e3481347 	movt	r1, #33607	; 0x8347
    13f4:	e1500001 	cmp	r0, r1
    13f8:	1affffef 	bne	13bc <Java_com_geohot_towelroot_TowelRoot_rootTheShit+0x24c>
    13fc:	e51b1038 	ldr	r1, [fp, #-56]	; 0x38
    1400:	e3a00004 	mov	r0, #4
    1404:	e51b203c 	ldr	r2, [fp, #-60]	; 0x3c
    1408:	ebfffec8 	bl	f30 <Java_com_geohot_towelroot_TowelRoot_rootTheShit-0x240>
    140c:	eaffffe8 	b	13b4 <Java_com_geohot_towelroot_TowelRoot_rootTheShit+0x244>
    1410:	e1500006 	cmp	r0, r6
    1414:	1affffe8 	bne	13bc <Java_com_geohot_towelroot_TowelRoot_rootTheShit+0x24c>
    1418:	eaffffe5 	b	13b4 <Java_com_geohot_towelroot_TowelRoot_rootTheShit+0x244>
    141c:	e1500007 	cmp	r0, r7
    1420:	1affffe5 	bne	13bc <Java_com_geohot_towelroot_TowelRoot_rootTheShit+0x24c>
    1424:	e59f0428 	ldr	r0, [pc, #1064]	; 1854 <Java_com_geohot_towelroot_TowelRoot_rootTheShit+0x6e4>
    1428:	e51b1030 	ldr	r1, [fp, #-48]	; 0x30
    142c:	e51b2034 	ldr	r2, [fp, #-52]	; 0x34
    1430:	e0801001 	add	r1, r0, r1
    1434:	e3a00004 	mov	r0, #4
    1438:	ebfffebc 	bl	f30 <Java_com_geohot_towelroot_TowelRoot_rootTheShit-0x240>
    143c:	e30e0637 	movw	r0, #58935	; 0xe637
    1440:	e34306e9 	movt	r0, #14057	; 0x36e9
    1444:	eaffffdc 	b	13bc <Java_com_geohot_towelroot_TowelRoot_rootTheShit+0x24c>
    1448:	e1500008 	cmp	r0, r8
    144c:	1affffda 	bne	13bc <Java_com_geohot_towelroot_TowelRoot_rootTheShit+0x24c>
    1450:	e55b0021 	ldrb	r0, [fp, #-33]	; 0x21
    1454:	e3500000 	cmp	r0, #0
    1458:	e30a0831 	movw	r0, #43057	; 0xa831
    145c:	e34104d9 	movt	r0, #5337	; 0x14d9
    1460:	130e0e5d 	movwne	r0, #61021	; 0xee5d
    1464:	1347094c 	movtne	r0, #31052	; 0x794c
    1468:	eaffffd3 	b	13bc <Java_com_geohot_towelroot_TowelRoot_rootTheShit+0x24c>
    146c:	e3091a77 	movw	r1, #39543	; 0x9a77
    1470:	e34417e1 	movt	r1, #18401	; 0x47e1
    1474:	e1500001 	cmp	r0, r1
    1478:	1affffcf 	bne	13bc <Java_com_geohot_towelroot_TowelRoot_rootTheShit+0x24c>
    147c:	e3a0000a 	mov	r0, #10
    1480:	ebfffead 	bl	f3c <Java_com_geohot_towelroot_TowelRoot_rootTheShit-0x234>
    1484:	e30a022f 	movw	r0, #41519	; 0xa22f
    1488:	e3430717 	movt	r0, #14103	; 0x3717
    148c:	eaffffca 	b	13bc <Java_com_geohot_towelroot_TowelRoot_rootTheShit+0x24c>
    1490:	e30415bb 	movw	r1, #17851	; 0x45bb
    1494:	e3491c55 	movt	r1, #40021	; 0x9c55
    1498:	e1500001 	cmp	r0, r1
    149c:	ca000004 	bgt	14b4 <Java_com_geohot_towelroot_TowelRoot_rootTheShit+0x344>
    14a0:	e3001291 	movw	r1, #657	; 0x291
    14a4:	e3481774 	movt	r1, #34676	; 0x8774
    14a8:	e1500001 	cmp	r0, r1
    14ac:	1affffc2 	bne	13bc <Java_com_geohot_towelroot_TowelRoot_rootTheShit+0x24c>
    14b0:	ea00004a 	b	15e0 <Java_com_geohot_towelroot_TowelRoot_rootTheShit+0x470>
    14b4:	e30d1642 	movw	r1, #54850	; 0xd642
    14b8:	e34a1f34 	movt	r1, #44852	; 0xaf34
    14bc:	e1500001 	cmp	r0, r1
    14c0:	ca000033 	bgt	1594 <Java_com_geohot_towelroot_TowelRoot_rootTheShit+0x424>
    14c4:	e30415bc 	movw	r1, #17852	; 0x45bc
    14c8:	e3491c55 	movt	r1, #40021	; 0x9c55
    14cc:	e1500001 	cmp	r0, r1
    14d0:	1affffb9 	bne	13bc <Java_com_geohot_towelroot_TowelRoot_rootTheShit+0x24c>
    14d4:	e24d0008 	sub	r0, sp, #8
    14d8:	e50b0054 	str	r0, [fp, #-84]	; 0x54
    14dc:	e1a0d000 	mov	sp, r0
    14e0:	e24d0008 	sub	r0, sp, #8
    14e4:	e1a0d000 	mov	sp, r0
    14e8:	e50b002c 	str	r0, [fp, #-44]	; 0x2c
    14ec:	e24d0008 	sub	r0, sp, #8
    14f0:	e1a0d000 	mov	sp, r0
    14f4:	e50b0028 	str	r0, [fp, #-40]	; 0x28
    14f8:	e59f0354 	ldr	r0, [pc, #852]	; 1854 <Java_com_geohot_towelroot_TowelRoot_rootTheShit+0x6e4>
    14fc:	e51b1040 	ldr	r1, [fp, #-64]	; 0x40
    1500:	e51b2044 	ldr	r2, [fp, #-68]	; 0x44
    1504:	e0801001 	add	r1, r0, r1
    1508:	e3a00004 	mov	r0, #4
    150c:	e50b1058 	str	r1, [fp, #-88]	; 0x58
    1510:	ebfffe86 	bl	f30 <Java_com_geohot_towelroot_TowelRoot_rootTheShit-0x240>
    1514:	ebfffe8b 	bl	f48 <Java_com_geohot_towelroot_TowelRoot_rootTheShit-0x228>
    1518:	e51b1058 	ldr	r1, [fp, #-88]	; 0x58
    151c:	e1a03000 	mov	r3, r0
    1520:	e51b2048 	ldr	r2, [fp, #-72]	; 0x48
    1524:	e3a00004 	mov	r0, #4
    1528:	ebfffe80 	bl	f30 <Java_com_geohot_towelroot_TowelRoot_rootTheShit-0x240>
    152c:	eb002a01 	bl	bd38 <Java_com_geohot_towelroot_TowelRoot_rootTheShit+0xabc8>
    1530:	e51b0054 	ldr	r0, [fp, #-84]	; 0x54
    1534:	e3a01000 	mov	r1, #0
    1538:	e51b204c 	ldr	r2, [fp, #-76]	; 0x4c
    153c:	e3a03000 	mov	r3, #0
    1540:	ebfffe83 	bl	f54 <Java_com_geohot_towelroot_TowelRoot_rootTheShit-0x21c>
    1544:	e24dd008 	sub	sp, sp, #8
    1548:	e3e00000 	mvn	r0, #0
    154c:	e3a01811 	mov	r1, #1114112	; 0x110000
    1550:	e58d0000 	str	r0, [sp]
    1554:	e3a00000 	mov	r0, #0
    1558:	e58d0004 	str	r0, [sp, #4]
    155c:	e3a0020a 	mov	r0, #-1610612736	; 0xa0000000
    1560:	e3a02007 	mov	r2, #7
    1564:	e3a03031 	mov	r3, #49	; 0x31
    1568:	ebfffe7c 	bl	f60 <Java_com_geohot_towelroot_TowelRoot_rootTheShit-0x210>
    156c:	e28dd008 	add	sp, sp, #8
    1570:	e51b1050 	ldr	r1, [fp, #-80]	; 0x50
    1574:	e2800b02 	add	r0, r0, #2048	; 0x800
    1578:	e3500000 	cmp	r0, #0
    157c:	e5810000 	str	r0, [r1]
    1580:	e3a00000 	mov	r0, #0
    1584:	a3000001 	movwge	r0, #1
    1588:	e54b0021 	strb	r0, [fp, #-33]	; 0x21
    158c:	e1a00008 	mov	r0, r8
    1590:	eaffff89 	b	13bc <Java_com_geohot_towelroot_TowelRoot_rootTheShit+0x24c>
    1594:	e3061457 	movw	r1, #25687	; 0x6457
    1598:	e34b1766 	movt	r1, #46950	; 0xb766
    159c:	e1500001 	cmp	r0, r1
    15a0:	ca000004 	bgt	15b8 <Java_com_geohot_towelroot_TowelRoot_rootTheShit+0x448>
    15a4:	e30d1643 	movw	r1, #54851	; 0xd643
    15a8:	e34a1f34 	movt	r1, #44852	; 0xaf34
    15ac:	e1500001 	cmp	r0, r1
    15b0:	1affff81 	bne	13bc <Java_com_geohot_towelroot_TowelRoot_rootTheShit+0x24c>
    15b4:	ea000041 	b	16c0 <Java_com_geohot_towelroot_TowelRoot_rootTheShit+0x550>
    15b8:	e3021046 	movw	r1, #8262	; 0x2046
    15bc:	e34b18cd 	movt	r1, #47309	; 0xb8cd
    15c0:	e1500001 	cmp	r0, r1
    15c4:	ca000008 	bgt	15ec <Java_com_geohot_towelroot_TowelRoot_rootTheShit+0x47c>
    15c8:	e3061458 	movw	r1, #25688	; 0x6458
    15cc:	e34b1766 	movt	r1, #46950	; 0xb766
    15d0:	e1500001 	cmp	r0, r1
    15d4:	1affff78 	bne	13bc <Java_com_geohot_towelroot_TowelRoot_rootTheShit+0x24c>
    15d8:	e3a0000a 	mov	r0, #10
    15dc:	ebfffe56 	bl	f3c <Java_com_geohot_towelroot_TowelRoot_rootTheShit-0x234>
    15e0:	e3090a77 	movw	r0, #39543	; 0x9a77
    15e4:	e34407e1 	movt	r0, #18401	; 0x47e1
    15e8:	eaffff73 	b	13bc <Java_com_geohot_towelroot_TowelRoot_rootTheShit+0x24c>
    15ec:	e30f1e2f 	movw	r1, #65071	; 0xfe2f
    15f0:	e3401b53 	movt	r1, #2899	; 0xb53
    15f4:	e1500001 	cmp	r0, r1
    15f8:	ca000033 	bgt	16cc <Java_com_geohot_towelroot_TowelRoot_rootTheShit+0x55c>
    15fc:	e3021047 	movw	r1, #8263	; 0x2047
    1600:	e34b18cd 	movt	r1, #47309	; 0xb8cd
    1604:	e1500001 	cmp	r0, r1
    1608:	1affff6b 	bne	13bc <Java_com_geohot_towelroot_TowelRoot_rootTheShit+0x24c>
    160c:	e59f0240 	ldr	r0, [pc, #576]	; 1854 <Java_com_geohot_towelroot_TowelRoot_rootTheShit+0x6e4>
    1610:	e51b205c 	ldr	r2, [fp, #-92]	; 0x5c
    1614:	e0801002 	add	r1, r0, r2
    1618:	e59f0240 	ldr	r0, [pc, #576]	; 1860 <Java_com_geohot_towelroot_TowelRoot_rootTheShit+0x6f0>
    161c:	e50b1058 	str	r1, [fp, #-88]	; 0x58
    1620:	e0802002 	add	r2, r0, r2
    1624:	e24d0008 	sub	r0, sp, #8
    1628:	e50b0054 	str	r0, [fp, #-84]	; 0x54
    162c:	e1a0d000 	mov	sp, r0
    1630:	e3a00004 	mov	r0, #4
    1634:	ebfffe3d 	bl	f30 <Java_com_geohot_towelroot_TowelRoot_rootTheShit-0x240>
    1638:	e59f0224 	ldr	r0, [pc, #548]	; 1864 <Java_com_geohot_towelroot_TowelRoot_rootTheShit+0x6f4>
    163c:	e51b105c 	ldr	r1, [fp, #-92]	; 0x5c
    1640:	e0800001 	add	r0, r0, r1
    1644:	e50b0068 	str	r0, [fp, #-104]	; 0x68
    1648:	ebfffe3e 	bl	f48 <Java_com_geohot_towelroot_TowelRoot_rootTheShit-0x228>
    164c:	e51b1058 	ldr	r1, [fp, #-88]	; 0x58
    1650:	e1a03000 	mov	r3, r0
    1654:	e51b2068 	ldr	r2, [fp, #-104]	; 0x68
    1658:	e3a00004 	mov	r0, #4
    165c:	ebfffe33 	bl	f30 <Java_com_geohot_towelroot_TowelRoot_rootTheShit-0x240>
    1660:	eb0029b4 	bl	bd38 <Java_com_geohot_towelroot_TowelRoot_rootTheShit+0xabc8>
    1664:	e59f01fc 	ldr	r0, [pc, #508]	; 1868 <Java_com_geohot_towelroot_TowelRoot_rootTheShit+0x6f8>
    1668:	e3a03000 	mov	r3, #0
    166c:	e51b105c 	ldr	r1, [fp, #-92]	; 0x5c
    1670:	e0802001 	add	r2, r0, r1
    1674:	e51b0054 	ldr	r0, [fp, #-84]	; 0x54
    1678:	e3a01000 	mov	r1, #0
    167c:	ebfffe34 	bl	f54 <Java_com_geohot_towelroot_TowelRoot_rootTheShit-0x21c>
    1680:	e24dd008 	sub	sp, sp, #8
    1684:	e3e00000 	mvn	r0, #0
    1688:	e3a01811 	mov	r1, #1114112	; 0x110000
    168c:	e58d0000 	str	r0, [sp]
    1690:	e3a00000 	mov	r0, #0
    1694:	e58d0004 	str	r0, [sp, #4]
    1698:	e3a0020a 	mov	r0, #-1610612736	; 0xa0000000
    169c:	e3a02007 	mov	r2, #7
    16a0:	e3a03031 	mov	r3, #49	; 0x31
    16a4:	ebfffe2d 	bl	f60 <Java_com_geohot_towelroot_TowelRoot_rootTheShit-0x210>
    16a8:	e28dd008 	add	sp, sp, #8
    16ac:	e59f11b8 	ldr	r1, [pc, #440]	; 186c <Java_com_geohot_towelroot_TowelRoot_rootTheShit+0x6fc>
    16b0:	e2800b02 	add	r0, r0, #2048	; 0x800
    16b4:	e51b205c 	ldr	r2, [fp, #-92]	; 0x5c
    16b8:	e7911002 	ldr	r1, [r1, r2]
    16bc:	e5810000 	str	r0, [r1]
    16c0:	e30405bc 	movw	r0, #17852	; 0x45bc
    16c4:	e3490c55 	movt	r0, #40021	; 0x9c55
    16c8:	eaffff3b 	b	13bc <Java_com_geohot_towelroot_TowelRoot_rootTheShit+0x24c>
    16cc:	e3071636 	movw	r1, #30262	; 0x7636
    16d0:	e34113f9 	movt	r1, #5113	; 0x13f9
    16d4:	e1500001 	cmp	r0, r1
    16d8:	ca000004 	bgt	16f0 <Java_com_geohot_towelroot_TowelRoot_rootTheShit+0x580>
    16dc:	e30f1e30 	movw	r1, #65072	; 0xfe30
    16e0:	e3401b53 	movt	r1, #2899	; 0xb53
    16e4:	e1500001 	cmp	r0, r1
    16e8:	1affff33 	bne	13bc <Java_com_geohot_towelroot_TowelRoot_rootTheShit+0x24c>
    16ec:	ea000035 	b	17c8 <Java_com_geohot_towelroot_TowelRoot_rootTheShit+0x658>
    16f0:	e30a1830 	movw	r1, #43056	; 0xa830
    16f4:	e34114d9 	movt	r1, #5337	; 0x14d9
    16f8:	e1500001 	cmp	r0, r1
    16fc:	ca00000d 	bgt	1738 <Java_com_geohot_towelroot_TowelRoot_rootTheShit+0x5c8>
    1700:	e3071637 	movw	r1, #30263	; 0x7637
    1704:	e34113f9 	movt	r1, #5113	; 0x13f9
    1708:	e1500001 	cmp	r0, r1
    170c:	1affff2a 	bne	13bc <Java_com_geohot_towelroot_TowelRoot_rootTheShit+0x24c>
    1710:	e59f013c 	ldr	r0, [pc, #316]	; 1854 <Java_com_geohot_towelroot_TowelRoot_rootTheShit+0x6e4>
    1714:	e51b2060 	ldr	r2, [fp, #-96]	; 0x60
    1718:	e0801002 	add	r1, r0, r2
    171c:	e59f0134 	ldr	r0, [pc, #308]	; 1858 <Java_com_geohot_towelroot_TowelRoot_rootTheShit+0x6e8>
    1720:	e0802002 	add	r2, r0, r2
    1724:	e3a00004 	mov	r0, #4
    1728:	ebfffe00 	bl	f30 <Java_com_geohot_towelroot_TowelRoot_rootTheShit-0x240>
    172c:	e30f0e30 	movw	r0, #65072	; 0xfe30
    1730:	e3400b53 	movt	r0, #2899	; 0xb53
    1734:	eaffff20 	b	13bc <Java_com_geohot_towelroot_TowelRoot_rootTheShit+0x24c>
    1738:	e30f174b 	movw	r1, #63307	; 0xf74b
    173c:	e342128f 	movt	r1, #8847	; 0x228f
    1740:	e1500001 	cmp	r0, r1
    1744:	ca000017 	bgt	17a8 <Java_com_geohot_towelroot_TowelRoot_rootTheShit+0x638>
    1748:	e30a1831 	movw	r1, #43057	; 0xa831
    174c:	e34114d9 	movt	r1, #5337	; 0x14d9
    1750:	e1500001 	cmp	r0, r1
    1754:	1affff18 	bne	13bc <Java_com_geohot_towelroot_TowelRoot_rootTheShit+0x24c>
    1758:	e24dd008 	sub	sp, sp, #8
    175c:	e3e00000 	mvn	r0, #0
    1760:	e3a01811 	mov	r1, #1114112	; 0x110000
    1764:	e58d0000 	str	r0, [sp]
    1768:	e3a00000 	mov	r0, #0
    176c:	e58d0004 	str	r0, [sp, #4]
    1770:	e3a00601 	mov	r0, #1048576	; 0x100000
    1774:	e3a02007 	mov	r2, #7
    1778:	e3a03031 	mov	r3, #49	; 0x31
    177c:	ebfffdf7 	bl	f60 <Java_com_geohot_towelroot_TowelRoot_rootTheShit-0x210>
    1780:	e28dd008 	add	sp, sp, #8
    1784:	e2801b02 	add	r1, r0, #2048	; 0x800
    1788:	e30f074c 	movw	r0, #63308	; 0xf74c
    178c:	e51b2064 	ldr	r2, [fp, #-100]	; 0x64
    1790:	e3510811 	cmp	r1, #1114112	; 0x110000
    1794:	e342028f 	movt	r0, #8847	; 0x228f
    1798:	8308015f 	movwhi	r0, #33119	; 0x815f
    179c:	e5821000 	str	r1, [r2]
    17a0:	8347022e 	movthi	r0, #29230	; 0x722e
    17a4:	eaffff04 	b	13bc <Java_com_geohot_towelroot_TowelRoot_rootTheShit+0x24c>
    17a8:	e30e1637 	movw	r1, #58935	; 0xe637
    17ac:	e34316e9 	movt	r1, #14057	; 0x36e9
    17b0:	e1500001 	cmp	r0, r1
    17b4:	0a000006 	beq	17d4 <Java_com_geohot_towelroot_TowelRoot_rootTheShit+0x664>
    17b8:	e30a122f 	movw	r1, #41519	; 0xa22f
    17bc:	e3431717 	movt	r1, #14103	; 0x3717
    17c0:	e1500001 	cmp	r0, r1
    17c4:	1a000005 	bne	17e0 <Java_com_geohot_towelroot_TowelRoot_rootTheShit+0x670>
    17c8:	e3000291 	movw	r0, #657	; 0x291
    17cc:	e3480774 	movt	r0, #34676	; 0x8774
    17d0:	eafffef9 	b	13bc <Java_com_geohot_towelroot_TowelRoot_rootTheShit+0x24c>
    17d4:	e3a0000a 	mov	r0, #10
    17d8:	ebfffdd7 	bl	f3c <Java_com_geohot_towelroot_TowelRoot_rootTheShit-0x234>
    17dc:	eaffff16 	b	143c <Java_com_geohot_towelroot_TowelRoot_rootTheShit+0x2cc>
    17e0:	e30f174c 	movw	r1, #63308	; 0xf74c
    17e4:	e342128f 	movt	r1, #8847	; 0x228f
    17e8:	e1500001 	cmp	r0, r1
    17ec:	1afffef2 	bne	13bc <Java_com_geohot_towelroot_TowelRoot_rootTheShit+0x24c>
    17f0:	e59f0078 	ldr	r0, [pc, #120]	; 1870 <Java_com_geohot_towelroot_TowelRoot_rootTheShit+0x700>
    17f4:	e59f1078 	ldr	r1, [pc, #120]	; 1874 <Java_com_geohot_towelroot_TowelRoot_rootTheShit+0x704>
    17f8:	e08f5000 	add	r5, pc, r0
    17fc:	e7914005 	ldr	r4, [r1, r5]
    1800:	e1a00004 	mov	r0, r4
    1804:	ebfffdd8 	bl	f6c <Java_com_geohot_towelroot_TowelRoot_rootTheShit-0x204>
    1808:	e59f0068 	ldr	r0, [pc, #104]	; 1878 <Java_com_geohot_towelroot_TowelRoot_rootTheShit+0x708>
    180c:	e3a01000 	mov	r1, #0
    1810:	e3a03000 	mov	r3, #0
    1814:	e0802005 	add	r2, r0, r5
    1818:	e51b002c 	ldr	r0, [fp, #-44]	; 0x2c
    181c:	ebfffdcc 	bl	f54 <Java_com_geohot_towelroot_TowelRoot_rootTheShit-0x21c>
    1820:	e59f1054 	ldr	r1, [pc, #84]	; 187c <Java_com_geohot_towelroot_TowelRoot_rootTheShit+0x70c>
    1824:	e3a03000 	mov	r3, #0
    1828:	e51b0028 	ldr	r0, [fp, #-40]	; 0x28
    182c:	e0812005 	add	r2, r1, r5
    1830:	e3a01000 	mov	r1, #0
    1834:	ebfffdc6 	bl	f54 <Java_com_geohot_towelroot_TowelRoot_rootTheShit-0x21c>
    1838:	e59f0040 	ldr	r0, [pc, #64]	; 1880 <Java_com_geohot_towelroot_TowelRoot_rootTheShit+0x710>
    183c:	e1a01004 	mov	r1, r4
    1840:	e7900005 	ldr	r0, [r0, r5]
    1844:	ebfffdcb 	bl	f78 <Java_com_geohot_towelroot_TowelRoot_rootTheShit-0x1f8>
    1848:	e24bd01c 	sub	sp, fp, #28
    184c:	e8bd8ff0 	pop	{r4, r5, r6, r7, r8, r9, sl, fp, pc}
    1850:	00029ab0 			; <UNDEFINED> instruction: 0x00029ab0
    1854:	fffe1bcb 			; <UNDEFINED> instruction: 0xfffe1bcb
    1858:	fffe1c15 			; <UNDEFINED> instruction: 0xfffe1c15
    185c:	00029a20 	andeq	r9, r2, r0, lsr #20
    1860:	fffe1bd5 			; <UNDEFINED> instruction: 0xfffe1bd5
    1864:	fffe1bef 			; <UNDEFINED> instruction: 0xfffe1bef
    1868:	fffd6b04 			; <UNDEFINED> instruction: 0xfffd6b04
    186c:	ffffff90 			; <UNDEFINED> instruction: 0xffffff90
    1870:	00029598 	muleq	r2, r8, r5
    1874:	ffffff94 			; <UNDEFINED> instruction: 0xffffff94
    1878:	fffd6d70 			; <UNDEFINED> instruction: 0xfffd6d70
    187c:	fffdabc8 			; <UNDEFINED> instruction: 0xfffdabc8
    1880:	ffffff98 			; <UNDEFINED> instruction: 0xffffff98
    1884:	000299f4 	strdeq	r9, [r2], -r4
    1888:	fffe1c29 			; <UNDEFINED> instruction: 0xfffe1c29
    188c:	00029a08 	andeq	r9, r2, r8, lsl #20
    1890:	ffffff9c 			; <UNDEFINED> instruction: 0xffffff9c
    1894:	00029a14 	andeq	r9, r2, r4, lsl sl
    1898:	00029a8c 	andeq	r9, r2, ip, lsl #21
    189c:	e92d4ff0 	push	{r4, r5, r6, r7, r8, r9, sl, fp, lr}
    18a0:	e28db01c 	add	fp, sp, #28
    18a4:	e24dd034 	sub	sp, sp, #52	; 0x34
    18a8:	e3a00000 	mov	r0, #0
    18ac:	e3a01001 	mov	r1, #1
    18b0:	e58d002c 	str	r0, [sp, #44]	; 0x2c
    18b4:	e3a02006 	mov	r2, #6
    18b8:	e58d0028 	str	r0, [sp, #40]	; 0x28
    18bc:	e3a04002 	mov	r4, #2
    18c0:	e58d0024 	str	r0, [sp, #36]	; 0x24
    18c4:	e3a05001 	mov	r5, #1
    18c8:	e58d0020 	str	r0, [sp, #32]
    18cc:	e3a00002 	mov	r0, #2
    18d0:	ebfffdab 	bl	f84 <Java_com_geohot_towelroot_TowelRoot_rootTheShit-0x1ec>
    18d4:	e1a06000 	mov	r6, r0
    18d8:	e3a00004 	mov	r0, #4
    18dc:	e28d301c 	add	r3, sp, #28
    18e0:	e58d0000 	str	r0, [sp]
    18e4:	e1a00006 	mov	r0, r6
    18e8:	e3a01001 	mov	r1, #1
    18ec:	e3a02002 	mov	r2, #2
    18f0:	e58d6010 	str	r6, [sp, #16]
    18f4:	e58d501c 	str	r5, [sp, #28]
    18f8:	ebfffda4 	bl	f90 <Java_com_geohot_towelroot_TowelRoot_rootTheShit-0x1e0>
    18fc:	e300007f 	movw	r0, #127	; 0x7f
    1900:	e1cd42b0 	strh	r4, [sp, #32]
    1904:	e3400100 	movt	r0, #256	; 0x100
    1908:	e28d1020 	add	r1, sp, #32
    190c:	e58d0024 	str	r0, [sp, #36]	; 0x24
    1910:	e30a0f15 	movw	r0, #44821	; 0xaf15
    1914:	e1cd02b2 	strh	r0, [sp, #34]	; 0x22
    1918:	e1a00006 	mov	r0, r6
    191c:	e3a02010 	mov	r2, #16
    1920:	ebfffd9d 	bl	f9c <Java_com_geohot_towelroot_TowelRoot_rootTheShit-0x1d4>
    1924:	e1a00006 	mov	r0, r6
    1928:	e3a01001 	mov	r1, #1
    192c:	ebfffd9d 	bl	fa8 <Java_com_geohot_towelroot_TowelRoot_rootTheShit-0x1c8>
    1930:	e59f01bc 	ldr	r0, [pc, #444]	; 1af4 <Java_com_geohot_towelroot_TowelRoot_rootTheShit+0x984>
    1934:	e30c2690 	movw	r2, #50832	; 0xc690
    1938:	e59f31b8 	ldr	r3, [pc, #440]	; 1af8 <Java_com_geohot_towelroot_TowelRoot_rootTheShit+0x988>
    193c:	e302608e 	movw	r6, #8334	; 0x208e
    1940:	e59f11b4 	ldr	r1, [pc, #436]	; 1afc <Java_com_geohot_towelroot_TowelRoot_rootTheShit+0x98c>
    1944:	e08f0000 	add	r0, pc, r0
    1948:	e0833000 	add	r3, r3, r0
    194c:	e3084d4c 	movw	r4, #36172	; 0x8d4c
    1950:	e0810000 	add	r0, r1, r0
    1954:	e58d0008 	str	r0, [sp, #8]
    1958:	e59f01a0 	ldr	r0, [pc, #416]	; 1b00 <Java_com_geohot_towelroot_TowelRoot_rootTheShit+0x990>
    195c:	e3058cce 	movw	r8, #23758	; 0x5cce
    1960:	e59f119c 	ldr	r1, [pc, #412]	; 1b04 <Java_com_geohot_towelroot_TowelRoot_rootTheShit+0x994>
    1964:	e30c968f 	movw	r9, #50831	; 0xc68f
    1968:	e08f0000 	add	r0, pc, r0
    196c:	e302a08f 	movw	sl, #8335	; 0x208f
    1970:	e3055ccf 	movw	r5, #23759	; 0x5ccf
    1974:	e34c2b38 	movt	r2, #52024	; 0xcb38
    1978:	e58d0018 	str	r0, [sp, #24]
    197c:	e0810000 	add	r0, r1, r0
    1980:	e58d0014 	str	r0, [sp, #20]
    1984:	e34b6f86 	movt	r6, #49030	; 0xbf86
    1988:	e349459b 	movt	r4, #38299	; 0x959b
    198c:	e3458843 	movt	r8, #22595	; 0x5843
    1990:	e34c9b38 	movt	r9, #52024	; 0xcb38
    1994:	e34baf86 	movt	sl, #49030	; 0xbf86
    1998:	e3455843 	movt	r5, #22595	; 0x5843
    199c:	e1a00002 	mov	r0, r2
    19a0:	e1a07002 	mov	r7, r2
    19a4:	e58d300c 	str	r3, [sp, #12]
    19a8:	ea000001 	b	19b4 <Java_com_geohot_towelroot_TowelRoot_rootTheShit+0x844>
    19ac:	e1500007 	cmp	r0, r7
    19b0:	01a0000a 	moveq	r0, sl
    19b4:	e1500006 	cmp	r0, r6
    19b8:	ca000005 	bgt	19d4 <Java_com_geohot_towelroot_TowelRoot_rootTheShit+0x864>
    19bc:	e1500004 	cmp	r0, r4
    19c0:	1afffffb 	bne	19b4 <Java_com_geohot_towelroot_TowelRoot_rootTheShit+0x844>
    19c4:	e3a0000a 	mov	r0, #10
    19c8:	ebfffd5b 	bl	f3c <Java_com_geohot_towelroot_TowelRoot_rootTheShit-0x234>
    19cc:	e1a00004 	mov	r0, r4
    19d0:	eafffff7 	b	19b4 <Java_com_geohot_towelroot_TowelRoot_rootTheShit+0x844>
    19d4:	e1500008 	cmp	r0, r8
    19d8:	ca00000e 	bgt	1a18 <Java_com_geohot_towelroot_TowelRoot_rootTheShit+0x8a8>
    19dc:	e1500009 	cmp	r0, r9
    19e0:	ca000016 	bgt	1a40 <Java_com_geohot_towelroot_TowelRoot_rootTheShit+0x8d0>
    19e4:	e150000a 	cmp	r0, sl
    19e8:	1afffff1 	bne	19b4 <Java_com_geohot_towelroot_TowelRoot_rootTheShit+0x844>
    19ec:	e59d0010 	ldr	r0, [sp, #16]
    19f0:	e3a01000 	mov	r1, #0
    19f4:	e3a02000 	mov	r2, #0
    19f8:	ebfffd6d 	bl	fb4 <Java_com_geohot_towelroot_TowelRoot_rootTheShit-0x1bc>
    19fc:	e3500000 	cmp	r0, #0
    1a00:	e3a00000 	mov	r0, #0
    1a04:	b3000001 	movwlt	r0, #1
    1a08:	e54b001d 	strb	r0, [fp, #-29]
    1a0c:	e30a05ae 	movw	r0, #42414	; 0xa5ae
    1a10:	e34e0765 	movt	r0, #59237	; 0xe765
    1a14:	eaffffe6 	b	19b4 <Java_com_geohot_towelroot_TowelRoot_rootTheShit+0x844>
    1a18:	e1500005 	cmp	r0, r5
    1a1c:	1affffe4 	bne	19b4 <Java_com_geohot_towelroot_TowelRoot_rootTheShit+0x844>
    1a20:	e59f00d0 	ldr	r0, [pc, #208]	; 1af8 <Java_com_geohot_towelroot_TowelRoot_rootTheShit+0x988>
    1a24:	e59d1018 	ldr	r1, [sp, #24]
    1a28:	e59d2014 	ldr	r2, [sp, #20]
    1a2c:	e0801001 	add	r1, r0, r1
    1a30:	e3a00004 	mov	r0, #4
    1a34:	ebfffd3d 	bl	f30 <Java_com_geohot_towelroot_TowelRoot_rootTheShit-0x240>
    1a38:	e1a00004 	mov	r0, r4
    1a3c:	eaffffdc 	b	19b4 <Java_com_geohot_towelroot_TowelRoot_rootTheShit+0x844>
    1a40:	e30a15ad 	movw	r1, #42413	; 0xa5ad
    1a44:	e34e1765 	movt	r1, #59237	; 0xe765
    1a48:	e1500001 	cmp	r0, r1
    1a4c:	daffffd6 	ble	19ac <Java_com_geohot_towelroot_TowelRoot_rootTheShit+0x83c>
    1a50:	e30e15de 	movw	r1, #58846	; 0xe5de
    1a54:	e34115f9 	movt	r1, #5625	; 0x15f9
    1a58:	e1500001 	cmp	r0, r1
    1a5c:	ca00000a 	bgt	1a8c <Java_com_geohot_towelroot_TowelRoot_rootTheShit+0x91c>
    1a60:	e30a15ae 	movw	r1, #42414	; 0xa5ae
    1a64:	e34e1765 	movt	r1, #59237	; 0xe765
    1a68:	e1500001 	cmp	r0, r1
    1a6c:	1affffd0 	bne	19b4 <Java_com_geohot_towelroot_TowelRoot_rootTheShit+0x844>
    1a70:	e55b001d 	ldrb	r0, [fp, #-29]
    1a74:	e3500000 	cmp	r0, #0
    1a78:	e30e0001 	movw	r0, #57345	; 0xe001
    1a7c:	e3430dfd 	movt	r0, #15869	; 0x3dfd
    1a80:	13050ccf 	movwne	r0, #23759	; 0x5ccf
    1a84:	13450843 	movtne	r0, #22595	; 0x5843
    1a88:	eaffffc9 	b	19b4 <Java_com_geohot_towelroot_TowelRoot_rootTheShit+0x844>
    1a8c:	e30117d3 	movw	r1, #6099	; 0x17d3
    1a90:	e3431a77 	movt	r1, #14967	; 0x3a77
    1a94:	e1500001 	cmp	r0, r1
    1a98:	0a000009 	beq	1ac4 <Java_com_geohot_towelroot_TowelRoot_rootTheShit+0x954>
    1a9c:	e30e1001 	movw	r1, #57345	; 0xe001
    1aa0:	e3431dfd 	movt	r1, #15869	; 0x3dfd
    1aa4:	e1500001 	cmp	r0, r1
    1aa8:	1a00000b 	bne	1adc <Java_com_geohot_towelroot_TowelRoot_rootTheShit+0x96c>
    1aac:	e59d100c 	ldr	r1, [sp, #12]
    1ab0:	e3a00004 	mov	r0, #4
    1ab4:	e59d2008 	ldr	r2, [sp, #8]
    1ab8:	ebfffd1c 	bl	f30 <Java_com_geohot_towelroot_TowelRoot_rootTheShit-0x240>
    1abc:	e1a00007 	mov	r0, r7
    1ac0:	eaffffbb 	b	19b4 <Java_com_geohot_towelroot_TowelRoot_rootTheShit+0x844>
    1ac4:	e59d0010 	ldr	r0, [sp, #16]
    1ac8:	e3a01000 	mov	r1, #0
    1acc:	e3a02000 	mov	r2, #0
    1ad0:	ebfffd37 	bl	fb4 <Java_com_geohot_towelroot_TowelRoot_rootTheShit-0x1bc>
    1ad4:	e1a0000a 	mov	r0, sl
    1ad8:	eaffffb5 	b	19b4 <Java_com_geohot_towelroot_TowelRoot_rootTheShit+0x844>
    1adc:	e30e15df 	movw	r1, #58847	; 0xe5df
    1ae0:	e34115f9 	movt	r1, #5625	; 0x15f9
    1ae4:	e1500001 	cmp	r0, r1
    1ae8:	1affffb1 	bne	19b4 <Java_com_geohot_towelroot_TowelRoot_rootTheShit+0x844>
    1aec:	e24bd01c 	sub	sp, fp, #28
    1af0:	e8bd8ff0 	pop	{r4, r5, r6, r7, r8, r9, sl, fp, pc}
    1af4:	0002944c 	andeq	r9, r2, ip, asr #8
    1af8:	fffe1bcb 			; <UNDEFINED> instruction: 0xfffe1bcb
    1afc:	fffe1fb2 			; <UNDEFINED> instruction: 0xfffe1fb2
    1b00:	00029428 	andeq	r9, r2, r8, lsr #8
    1b04:	fffe1f96 			; <UNDEFINED> instruction: 0xfffe1f96
    1b08:	e92d4ff0 	push	{r4, r5, r6, r7, r8, r9, sl, fp, lr}
    1b0c:	e28db01c 	add	fp, sp, #28
    1b10:	e24ddf63 	sub	sp, sp, #396	; 0x18c
    1b14:	e24dda02 	sub	sp, sp, #8192	; 0x2000
    1b18:	e59f0fd4 	ldr	r0, [pc, #4052]	; 2af4 <Java_com_geohot_towelroot_TowelRoot_rootTheShit+0x1984>
    1b1c:	e24bea02 	sub	lr, fp, #8192	; 0x2000
    1b20:	e59fafd0 	ldr	sl, [pc, #4048]	; 2af8 <Java_com_geohot_towelroot_TowelRoot_rootTheShit+0x1988>
    1b24:	e24e6068 	sub	r6, lr, #104	; 0x68
    1b28:	e08f0000 	add	r0, pc, r0
    1b2c:	e24bea02 	sub	lr, fp, #8192	; 0x2000
    1b30:	e59f3fc4 	ldr	r3, [pc, #4036]	; 2afc <Java_com_geohot_towelroot_TowelRoot_rootTheShit+0x198c>
    1b34:	e24b9a02 	sub	r9, fp, #8192	; 0x2000
    1b38:	e79a0000 	ldr	r0, [sl, r0]
    1b3c:	e30554d6 	movw	r5, #21718	; 0x54d6
    1b40:	e50e006c 	str	r0, [lr, #-108]	; 0x6c
    1b44:	e59f0fb4 	ldr	r0, [pc, #4020]	; 2b00 <Java_com_geohot_towelroot_TowelRoot_rootTheShit+0x1990>
    1b48:	e24bea02 	sub	lr, fp, #8192	; 0x2000
    1b4c:	e59f1ffc 	ldr	r1, [pc, #4092]	; 2b50 <Java_com_geohot_towelroot_TowelRoot_rootTheShit+0x19e0>
    1b50:	e3097e8d 	movw	r7, #40589	; 0x9e8d
    1b54:	e08f0000 	add	r0, pc, r0
    1b58:	e59f2ff4 	ldr	r2, [pc, #4084]	; 2b54 <Java_com_geohot_towelroot_TowelRoot_rootTheShit+0x19e4>
    1b5c:	e0833000 	add	r3, r3, r0
    1b60:	e50e3070 	str	r3, [lr, #-112]	; 0x70
    1b64:	e24bea02 	sub	lr, fp, #8192	; 0x2000
    1b68:	e0811000 	add	r1, r1, r0
    1b6c:	e59f8fe4 	ldr	r8, [pc, #4068]	; 2b58 <Java_com_geohot_towelroot_TowelRoot_rootTheShit+0x19e8>
    1b70:	e3a0c000 	mov	ip, #0
    1b74:	e50e1074 	str	r1, [lr, #-116]	; 0x74
    1b78:	e24bea02 	sub	lr, fp, #8192	; 0x2000
    1b7c:	e59f1fd8 	ldr	r1, [pc, #4056]	; 2b5c <Java_com_geohot_towelroot_TowelRoot_rootTheShit+0x19ec>
    1b80:	e3485e5b 	movt	r5, #36443	; 0x8e5b
    1b84:	e59f4fd4 	ldr	r4, [pc, #4052]	; 2b60 <Java_com_geohot_towelroot_TowelRoot_rootTheShit+0x19f0>
    1b88:	e3497438 	movt	r7, #37944	; 0x9438
    1b8c:	e7911000 	ldr	r1, [r1, r0]
    1b90:	e50e1078 	str	r1, [lr, #-120]	; 0x78
    1b94:	e24bea02 	sub	lr, fp, #8192	; 0x2000
    1b98:	e7920000 	ldr	r0, [r2, r0]
    1b9c:	e59f1fc0 	ldr	r1, [pc, #4032]	; 2b64 <Java_com_geohot_towelroot_TowelRoot_rootTheShit+0x19f4>
    1ba0:	e50e007c 	str	r0, [lr, #-124]	; 0x7c
    1ba4:	e24bea02 	sub	lr, fp, #8192	; 0x2000
    1ba8:	e59f0ffc 	ldr	r0, [pc, #4092]	; 2bac <Java_com_geohot_towelroot_TowelRoot_rootTheShit+0x1a3c>
    1bac:	e08f0000 	add	r0, pc, r0
    1bb0:	e7911000 	ldr	r1, [r1, r0]
    1bb4:	e50e1080 	str	r1, [lr, #-128]	; 0x80
    1bb8:	e59f1ff0 	ldr	r1, [pc, #4080]	; 2bb0 <Java_com_geohot_towelroot_TowelRoot_rootTheShit+0x1a40>
    1bbc:	e24bea02 	sub	lr, fp, #8192	; 0x2000
    1bc0:	e7911000 	ldr	r1, [r1, r0]
    1bc4:	e50e1084 	str	r1, [lr, #-132]	; 0x84
    1bc8:	e59f1fe4 	ldr	r1, [pc, #4068]	; 2bb4 <Java_com_geohot_towelroot_TowelRoot_rootTheShit+0x1a44>
    1bcc:	e24bea02 	sub	lr, fp, #8192	; 0x2000
    1bd0:	e7910000 	ldr	r0, [r1, r0]
    1bd4:	e50e0088 	str	r0, [lr, #-136]	; 0x88
    1bd8:	e59f0fd8 	ldr	r0, [pc, #4056]	; 2bb8 <Java_com_geohot_towelroot_TowelRoot_rootTheShit+0x1a48>
    1bdc:	e24bea02 	sub	lr, fp, #8192	; 0x2000
    1be0:	e59f1fd4 	ldr	r1, [pc, #4052]	; 2bbc <Java_com_geohot_towelroot_TowelRoot_rootTheShit+0x1a4c>
    1be4:	e08f0000 	add	r0, pc, r0
    1be8:	e7910000 	ldr	r0, [r1, r0]
    1bec:	e50e008c 	str	r0, [lr, #-140]	; 0x8c
    1bf0:	e59f0fc8 	ldr	r0, [pc, #4040]	; 2bc0 <Java_com_geohot_towelroot_TowelRoot_rootTheShit+0x1a50>
    1bf4:	e24bea02 	sub	lr, fp, #8192	; 0x2000
    1bf8:	e59f1fc4 	ldr	r1, [pc, #4036]	; 2bc4 <Java_com_geohot_towelroot_TowelRoot_rootTheShit+0x1a54>
    1bfc:	e08f0000 	add	r0, pc, r0
    1c00:	e7911000 	ldr	r1, [r1, r0]
    1c04:	e50e1090 	str	r1, [lr, #-144]	; 0x90
    1c08:	e59f1fb8 	ldr	r1, [pc, #4024]	; 2bc8 <Java_com_geohot_towelroot_TowelRoot_rootTheShit+0x1a58>
    1c0c:	e24bea02 	sub	lr, fp, #8192	; 0x2000
    1c10:	e0811000 	add	r1, r1, r0
    1c14:	e50e1094 	str	r1, [lr, #-148]	; 0x94
    1c18:	e59f1fac 	ldr	r1, [pc, #4012]	; 2bcc <Java_com_geohot_towelroot_TowelRoot_rootTheShit+0x1a5c>
    1c1c:	e59fefac 	ldr	lr, [pc, #4012]	; 2bd0 <Java_com_geohot_towelroot_TowelRoot_rootTheShit+0x1a60>
    1c20:	e0810000 	add	r0, r1, r0
    1c24:	e5090098 	str	r0, [r9, #-152]	; 0x98
    1c28:	e59f0ff8 	ldr	r0, [pc, #4088]	; 2c28 <Java_com_geohot_towelroot_TowelRoot_rootTheShit+0x1ab8>
    1c2c:	e24b9a02 	sub	r9, fp, #8192	; 0x2000
    1c30:	e59f1ff4 	ldr	r1, [pc, #4084]	; 2c2c <Java_com_geohot_towelroot_TowelRoot_rootTheShit+0x1abc>
    1c34:	e08f0000 	add	r0, pc, r0
    1c38:	e50be020 	str	lr, [fp, #-32]
    1c3c:	e0880000 	add	r0, r8, r0
    1c40:	e509009c 	str	r0, [r9, #-156]	; 0x9c
    1c44:	e59f0fe4 	ldr	r0, [pc, #4068]	; 2c30 <Java_com_geohot_towelroot_TowelRoot_rootTheShit+0x1ac0>
    1c48:	e24b9a02 	sub	r9, fp, #8192	; 0x2000
    1c4c:	e08f0000 	add	r0, pc, r0
    1c50:	e50900a0 	str	r0, [r9, #-160]	; 0xa0
    1c54:	e24b9a02 	sub	r9, fp, #8192	; 0x2000
    1c58:	e7943000 	ldr	r3, [r4, r0]
    1c5c:	e50930a4 	str	r3, [r9, #-164]	; 0xa4
    1c60:	e24b3a02 	sub	r3, fp, #8192	; 0x2000
    1c64:	e7910000 	ldr	r0, [r1, r0]
    1c68:	e24b9a02 	sub	r9, fp, #8192	; 0x2000
    1c6c:	e50300a8 	str	r0, [r3, #-168]	; 0xa8
    1c70:	e24b3a02 	sub	r3, fp, #8192	; 0x2000
    1c74:	e59f0fd4 	ldr	r0, [pc, #4052]	; 2c50 <Java_com_geohot_towelroot_TowelRoot_rootTheShit+0x1ae0>
    1c78:	e08f0000 	add	r0, pc, r0
    1c7c:	e50300ac 	str	r0, [r3, #-172]	; 0xac
    1c80:	e59f0fcc 	ldr	r0, [pc, #4044]	; 2c54 <Java_com_geohot_towelroot_TowelRoot_rootTheShit+0x1ae4>
    1c84:	e59f3fcc 	ldr	r3, [pc, #4044]	; 2c58 <Java_com_geohot_towelroot_TowelRoot_rootTheShit+0x1ae8>
    1c88:	e08f0000 	add	r0, pc, r0
    1c8c:	e79e0000 	ldr	r0, [lr, r0]
    1c90:	e24bea02 	sub	lr, fp, #8192	; 0x2000
    1c94:	e50900b0 	str	r0, [r9, #-176]	; 0xb0
    1c98:	e59f0fbc 	ldr	r0, [pc, #4028]	; 2c5c <Java_com_geohot_towelroot_TowelRoot_rootTheShit+0x1aec>
    1c9c:	e24b9a02 	sub	r9, fp, #8192	; 0x2000
    1ca0:	e08f0000 	add	r0, pc, r0
    1ca4:	e0880000 	add	r0, r8, r0
    1ca8:	e50900b4 	str	r0, [r9, #-180]	; 0xb4
    1cac:	e59f0fac 	ldr	r0, [pc, #4012]	; 2c60 <Java_com_geohot_towelroot_TowelRoot_rootTheShit+0x1af0>
    1cb0:	e24b9a02 	sub	r9, fp, #8192	; 0x2000
    1cb4:	e08f0000 	add	r0, pc, r0
    1cb8:	e50900b8 	str	r0, [r9, #-184]	; 0xb8
    1cbc:	e59f0fa0 	ldr	r0, [pc, #4000]	; 2c64 <Java_com_geohot_towelroot_TowelRoot_rootTheShit+0x1af4>
    1cc0:	e24b9a02 	sub	r9, fp, #8192	; 0x2000
    1cc4:	e08f0000 	add	r0, pc, r0
    1cc8:	e7910000 	ldr	r0, [r1, r0]
    1ccc:	e50900bc 	str	r0, [r9, #-188]	; 0xbc
    1cd0:	e59f0f90 	ldr	r0, [pc, #3984]	; 2c68 <Java_com_geohot_towelroot_TowelRoot_rootTheShit+0x1af8>
    1cd4:	e24b9a02 	sub	r9, fp, #8192	; 0x2000
    1cd8:	e08f0000 	add	r0, pc, r0
    1cdc:	e0880000 	add	r0, r8, r0
    1ce0:	e50900c0 	str	r0, [r9, #-192]	; 0xc0
    1ce4:	e59f0f80 	ldr	r0, [pc, #3968]	; 2c6c <Java_com_geohot_towelroot_TowelRoot_rootTheShit+0x1afc>
    1ce8:	e24b9a02 	sub	r9, fp, #8192	; 0x2000
    1cec:	e08f0000 	add	r0, pc, r0
    1cf0:	e50900c4 	str	r0, [r9, #-196]	; 0xc4
    1cf4:	e24b9a02 	sub	r9, fp, #8192	; 0x2000
    1cf8:	e0830000 	add	r0, r3, r0
    1cfc:	e59f3f6c 	ldr	r3, [pc, #3948]	; 2c70 <Java_com_geohot_towelroot_TowelRoot_rootTheShit+0x1b00>
    1d00:	e50900c8 	str	r0, [r9, #-200]	; 0xc8
    1d04:	e24b9a02 	sub	r9, fp, #8192	; 0x2000
    1d08:	e59f0f64 	ldr	r0, [pc, #3940]	; 2c74 <Java_com_geohot_towelroot_TowelRoot_rootTheShit+0x1b04>
    1d0c:	e08f0000 	add	r0, pc, r0
    1d10:	e7920000 	ldr	r0, [r2, r0]
    1d14:	e50900cc 	str	r0, [r9, #-204]	; 0xcc
    1d18:	e59f0ffc 	ldr	r0, [pc, #4092]	; 2d1c <Java_com_geohot_towelroot_TowelRoot_rootTheShit+0x1bac>
    1d1c:	e24b9a02 	sub	r9, fp, #8192	; 0x2000
    1d20:	e08f0000 	add	r0, pc, r0
    1d24:	e7920000 	ldr	r0, [r2, r0]
    1d28:	e50900d0 	str	r0, [r9, #-208]	; 0xd0
    1d2c:	e59f0ffc 	ldr	r0, [pc, #4092]	; 2d30 <Java_com_geohot_towelroot_TowelRoot_rootTheShit+0x1bc0>
    1d30:	e24b9a02 	sub	r9, fp, #8192	; 0x2000
    1d34:	e08f0000 	add	r0, pc, r0
    1d38:	e50900d4 	str	r0, [r9, #-212]	; 0xd4
    1d3c:	e24b9a02 	sub	r9, fp, #8192	; 0x2000
    1d40:	e7930000 	ldr	r0, [r3, r0]
    1d44:	e50900d8 	str	r0, [r9, #-216]	; 0xd8
    1d48:	e59f0fe4 	ldr	r0, [pc, #4068]	; 2d34 <Java_com_geohot_towelroot_TowelRoot_rootTheShit+0x1bc4>
    1d4c:	e24b9a02 	sub	r9, fp, #8192	; 0x2000
    1d50:	e59f3fe0 	ldr	r3, [pc, #4064]	; 2d38 <Java_com_geohot_towelroot_TowelRoot_rootTheShit+0x1bc8>
    1d54:	e08f0000 	add	r0, pc, r0
    1d58:	e50900dc 	str	r0, [r9, #-220]	; 0xdc
    1d5c:	e24b9a02 	sub	r9, fp, #8192	; 0x2000
    1d60:	e0833000 	add	r3, r3, r0
    1d64:	e50930e0 	str	r3, [r9, #-224]	; 0xe0
    1d68:	e24b3a02 	sub	r3, fp, #8192	; 0x2000
    1d6c:	e59f9fc8 	ldr	r9, [pc, #4040]	; 2d3c <Java_com_geohot_towelroot_TowelRoot_rootTheShit+0x1bcc>
    1d70:	e7990000 	ldr	r0, [r9, r0]
    1d74:	e50300e4 	str	r0, [r3, #-228]	; 0xe4
    1d78:	e59f0fc0 	ldr	r0, [pc, #4032]	; 2d40 <Java_com_geohot_towelroot_TowelRoot_rootTheShit+0x1bd0>
    1d7c:	e59f3fc0 	ldr	r3, [pc, #4032]	; 2d44 <Java_com_geohot_towelroot_TowelRoot_rootTheShit+0x1bd4>
    1d80:	e08f0000 	add	r0, pc, r0
    1d84:	e50e00e8 	str	r0, [lr, #-232]	; 0xe8
    1d88:	e24bea02 	sub	lr, fp, #8192	; 0x2000
    1d8c:	e0833000 	add	r3, r3, r0
    1d90:	e50e30ec 	str	r3, [lr, #-236]	; 0xec
    1d94:	e59f3ff8 	ldr	r3, [pc, #4088]	; 2d94 <Java_com_geohot_towelroot_TowelRoot_rootTheShit+0x1c24>
    1d98:	e51be020 	ldr	lr, [fp, #-32]
    1d9c:	e7930000 	ldr	r0, [r3, r0]
    1da0:	e24b3a02 	sub	r3, fp, #8192	; 0x2000
    1da4:	e50300f0 	str	r0, [r3, #-240]	; 0xf0
    1da8:	e24b3a02 	sub	r3, fp, #8192	; 0x2000
    1dac:	e59f0fe4 	ldr	r0, [pc, #4068]	; 2d98 <Java_com_geohot_towelroot_TowelRoot_rootTheShit+0x1c28>
    1db0:	e08f0000 	add	r0, pc, r0
    1db4:	e7990000 	ldr	r0, [r9, r0]
    1db8:	e50300f4 	str	r0, [r3, #-244]	; 0xf4
    1dbc:	e59f0fd8 	ldr	r0, [pc, #4056]	; 2d9c <Java_com_geohot_towelroot_TowelRoot_rootTheShit+0x1c2c>
    1dc0:	e24b3a02 	sub	r3, fp, #8192	; 0x2000
    1dc4:	e08f0000 	add	r0, pc, r0
    1dc8:	e79a0000 	ldr	r0, [sl, r0]
    1dcc:	e24baa02 	sub	sl, fp, #8192	; 0x2000
    1dd0:	e50300f8 	str	r0, [r3, #-248]	; 0xf8
    1dd4:	e59f0fc4 	ldr	r0, [pc, #4036]	; 2da0 <Java_com_geohot_towelroot_TowelRoot_rootTheShit+0x1c30>
    1dd8:	e24b3a02 	sub	r3, fp, #8192	; 0x2000
    1ddc:	e08f0000 	add	r0, pc, r0
    1de0:	e7920000 	ldr	r0, [r2, r0]
    1de4:	e50300fc 	str	r0, [r3, #-252]	; 0xfc
    1de8:	e59f0ff8 	ldr	r0, [pc, #4088]	; 2de8 <Java_com_geohot_towelroot_TowelRoot_rootTheShit+0x1c78>
    1dec:	e59f3ff8 	ldr	r3, [pc, #4088]	; 2dec <Java_com_geohot_towelroot_TowelRoot_rootTheShit+0x1c7c>
    1df0:	e08f0000 	add	r0, pc, r0
    1df4:	e7920000 	ldr	r0, [r2, r0]
    1df8:	e50a0100 	str	r0, [sl, #-256]	; 0x100
    1dfc:	e59f0fec 	ldr	r0, [pc, #4076]	; 2df0 <Java_com_geohot_towelroot_TowelRoot_rootTheShit+0x1c80>
    1e00:	e24baa02 	sub	sl, fp, #8192	; 0x2000
    1e04:	e08f0000 	add	r0, pc, r0
    1e08:	e50a0104 	str	r0, [sl, #-260]	; 0x104
    1e0c:	e59f0fe0 	ldr	r0, [pc, #4064]	; 2df4 <Java_com_geohot_towelroot_TowelRoot_rootTheShit+0x1c84>
    1e10:	e30fae8f 	movw	sl, #65167	; 0xfe8f
    1e14:	e348abef 	movt	sl, #35823	; 0x8bef
    1e18:	e08f0000 	add	r0, pc, r0
    1e1c:	e79e0000 	ldr	r0, [lr, r0]
    1e20:	e24bea02 	sub	lr, fp, #8192	; 0x2000
    1e24:	e50e0108 	str	r0, [lr, #-264]	; 0x108
    1e28:	e24bea02 	sub	lr, fp, #8192	; 0x2000
    1e2c:	e59f0fc4 	ldr	r0, [pc, #4036]	; 2df8 <Java_com_geohot_towelroot_TowelRoot_rootTheShit+0x1c88>
    1e30:	e08f0000 	add	r0, pc, r0
    1e34:	e0880000 	add	r0, r8, r0
    1e38:	e50e010c 	str	r0, [lr, #-268]	; 0x10c
    1e3c:	e59f0fb8 	ldr	r0, [pc, #4024]	; 2dfc <Java_com_geohot_towelroot_TowelRoot_rootTheShit+0x1c8c>
    1e40:	e24bea02 	sub	lr, fp, #8192	; 0x2000
    1e44:	e08f0000 	add	r0, pc, r0
    1e48:	e7940000 	ldr	r0, [r4, r0]
    1e4c:	e50e0110 	str	r0, [lr, #-272]	; 0x110
    1e50:	e59f0ffc 	ldr	r0, [pc, #4092]	; 2e54 <Java_com_geohot_towelroot_TowelRoot_rootTheShit+0x1ce4>
    1e54:	e24bea02 	sub	lr, fp, #8192	; 0x2000
    1e58:	e08f0000 	add	r0, pc, r0
    1e5c:	e50e0114 	str	r0, [lr, #-276]	; 0x114
    1e60:	e24bea02 	sub	lr, fp, #8192	; 0x2000
    1e64:	e7930000 	ldr	r0, [r3, r0]
    1e68:	e50e0118 	str	r0, [lr, #-280]	; 0x118
    1e6c:	e59f0fe4 	ldr	r0, [pc, #4068]	; 2e58 <Java_com_geohot_towelroot_TowelRoot_rootTheShit+0x1ce8>
    1e70:	e24bea02 	sub	lr, fp, #8192	; 0x2000
    1e74:	e59f3ffc 	ldr	r3, [pc, #4092]	; 2e78 <Java_com_geohot_towelroot_TowelRoot_rootTheShit+0x1d08>
    1e78:	e08f0000 	add	r0, pc, r0
    1e7c:	e50e011c 	str	r0, [lr, #-284]	; 0x11c
    1e80:	e59f0ff4 	ldr	r0, [pc, #4084]	; 2e7c <Java_com_geohot_towelroot_TowelRoot_rootTheShit+0x1d0c>
    1e84:	e24bea02 	sub	lr, fp, #8192	; 0x2000
    1e88:	e08f0000 	add	r0, pc, r0
    1e8c:	e7910000 	ldr	r0, [r1, r0]
    1e90:	e50e0120 	str	r0, [lr, #-288]	; 0x120
    1e94:	e59f0fe4 	ldr	r0, [pc, #4068]	; 2e80 <Java_com_geohot_towelroot_TowelRoot_rootTheShit+0x1d10>
    1e98:	e24bea02 	sub	lr, fp, #8192	; 0x2000
    1e9c:	e59f1d18 	ldr	r1, [pc, #3352]	; 2bbc <Java_com_geohot_towelroot_TowelRoot_rootTheShit+0x1a4c>
    1ea0:	e08f0000 	add	r0, pc, r0
    1ea4:	e0880000 	add	r0, r8, r0
    1ea8:	e50e0124 	str	r0, [lr, #-292]	; 0x124
    1eac:	e59f0fd0 	ldr	r0, [pc, #4048]	; 2e84 <Java_com_geohot_towelroot_TowelRoot_rootTheShit+0x1d14>
    1eb0:	e24bea02 	sub	lr, fp, #8192	; 0x2000
    1eb4:	e08f0000 	add	r0, pc, r0
    1eb8:	e50e0128 	str	r0, [lr, #-296]	; 0x128
    1ebc:	e59f0ffc 	ldr	r0, [pc, #4092]	; 2ec0 <Java_com_geohot_towelroot_TowelRoot_rootTheShit+0x1d50>
    1ec0:	e24bea02 	sub	lr, fp, #8192	; 0x2000
    1ec4:	e08f0000 	add	r0, pc, r0
    1ec8:	e0880000 	add	r0, r8, r0
    1ecc:	e50e012c 	str	r0, [lr, #-300]	; 0x12c
    1ed0:	e59f0fec 	ldr	r0, [pc, #4076]	; 2ec4 <Java_com_geohot_towelroot_TowelRoot_rootTheShit+0x1d54>
    1ed4:	e24bea02 	sub	lr, fp, #8192	; 0x2000
    1ed8:	e08f0000 	add	r0, pc, r0
    1edc:	e7940000 	ldr	r0, [r4, r0]
    1ee0:	e30a498c 	movw	r4, #43404	; 0xa98c
    1ee4:	e50e0130 	str	r0, [lr, #-304]	; 0x130
    1ee8:	e59f0fd8 	ldr	r0, [pc, #4056]	; 2ec8 <Java_com_geohot_towelroot_TowelRoot_rootTheShit+0x1d58>
    1eec:	e24bea02 	sub	lr, fp, #8192	; 0x2000
    1ef0:	e349430a 	movt	r4, #37642	; 0x930a
    1ef4:	e08f0000 	add	r0, pc, r0
    1ef8:	e50e0134 	str	r0, [lr, #-308]	; 0x134
    1efc:	e24bea02 	sub	lr, fp, #8192	; 0x2000
    1f00:	e0830000 	add	r0, r3, r0
    1f04:	e3093e8e 	movw	r3, #40590	; 0x9e8e
    1f08:	e50e0138 	str	r0, [lr, #-312]	; 0x138
    1f0c:	e24bea02 	sub	lr, fp, #8192	; 0x2000
    1f10:	e59f0fb4 	ldr	r0, [pc, #4020]	; 2ecc <Java_com_geohot_towelroot_TowelRoot_rootTheShit+0x1d5c>
    1f14:	e3493438 	movt	r3, #37944	; 0x9438
    1f18:	e08f0000 	add	r0, pc, r0
    1f1c:	e50e013c 	str	r0, [lr, #-316]	; 0x13c
    1f20:	e59f0fa8 	ldr	r0, [pc, #4008]	; 2ed0 <Java_com_geohot_towelroot_TowelRoot_rootTheShit+0x1d60>
    1f24:	e24bea02 	sub	lr, fp, #8192	; 0x2000
    1f28:	e08f0000 	add	r0, pc, r0
    1f2c:	e7910000 	ldr	r0, [r1, r0]
    1f30:	e50e0140 	str	r0, [lr, #-320]	; 0x140
    1f34:	e59f0f98 	ldr	r0, [pc, #3992]	; 2ed4 <Java_com_geohot_towelroot_TowelRoot_rootTheShit+0x1d64>
    1f38:	e24bea02 	sub	lr, fp, #8192	; 0x2000
    1f3c:	e08f0000 	add	r0, pc, r0
    1f40:	e7920000 	ldr	r0, [r2, r0]
    1f44:	e50e0144 	str	r0, [lr, #-324]	; 0x144
    1f48:	e59f0f88 	ldr	r0, [pc, #3976]	; 2ed8 <Java_com_geohot_towelroot_TowelRoot_rootTheShit+0x1d68>
    1f4c:	e24bea02 	sub	lr, fp, #8192	; 0x2000
    1f50:	e08f0000 	add	r0, pc, r0
    1f54:	e7920000 	ldr	r0, [r2, r0]
    1f58:	e50e0148 	str	r0, [lr, #-328]	; 0x148
    1f5c:	e59f0f78 	ldr	r0, [pc, #3960]	; 2edc <Java_com_geohot_towelroot_TowelRoot_rootTheShit+0x1d6c>
    1f60:	e24bea02 	sub	lr, fp, #8192	; 0x2000
    1f64:	e08f0000 	add	r0, pc, r0
    1f68:	e7920000 	ldr	r0, [r2, r0]
    1f6c:	e50e014c 	str	r0, [lr, #-332]	; 0x14c
    1f70:	e59f0f68 	ldr	r0, [pc, #3944]	; 2ee0 <Java_com_geohot_towelroot_TowelRoot_rootTheShit+0x1d70>
    1f74:	e24bea02 	sub	lr, fp, #8192	; 0x2000
    1f78:	e08f0000 	add	r0, pc, r0
    1f7c:	e7990000 	ldr	r0, [r9, r0]
    1f80:	e24b9a02 	sub	r9, fp, #8192	; 0x2000
    1f84:	e50e0150 	str	r0, [lr, #-336]	; 0x150
    1f88:	e59f0ff0 	ldr	r0, [pc, #4080]	; 2f80 <Java_com_geohot_towelroot_TowelRoot_rootTheShit+0x1e10>
    1f8c:	e24bea02 	sub	lr, fp, #8192	; 0x2000
    1f90:	e08f0000 	add	r0, pc, r0
    1f94:	e50e0154 	str	r0, [lr, #-340]	; 0x154
    1f98:	e59f0fe4 	ldr	r0, [pc, #4068]	; 2f84 <Java_com_geohot_towelroot_TowelRoot_rootTheShit+0x1e14>
    1f9c:	e30bee56 	movw	lr, #48726	; 0xbe56
    1fa0:	e347efa7 	movt	lr, #32679	; 0x7fa7
    1fa4:	e08f0000 	add	r0, pc, r0
    1fa8:	e5090158 	str	r0, [r9, #-344]	; 0x158
    1fac:	e59f0fd4 	ldr	r0, [pc, #4052]	; 2f88 <Java_com_geohot_towelroot_TowelRoot_rootTheShit+0x1e18>
    1fb0:	e30c9110 	movw	r9, #49424	; 0xc110
    1fb4:	e34999ae 	movt	r9, #39342	; 0x99ae
    1fb8:	e08f0000 	add	r0, pc, r0
    1fbc:	e7910000 	ldr	r0, [r1, r0]
    1fc0:	e24b1a02 	sub	r1, fp, #8192	; 0x2000
    1fc4:	e501015c 	str	r0, [r1, #-348]	; 0x15c
    1fc8:	e24b1a02 	sub	r1, fp, #8192	; 0x2000
    1fcc:	e59f0fb8 	ldr	r0, [pc, #4024]	; 2f8c <Java_com_geohot_towelroot_TowelRoot_rootTheShit+0x1e1c>
    1fd0:	e08f0000 	add	r0, pc, r0
    1fd4:	e7920000 	ldr	r0, [r2, r0]
    1fd8:	e3082e01 	movw	r2, #36353	; 0x8e01
    1fdc:	e5010160 	str	r0, [r1, #-352]	; 0x160
    1fe0:	e59f0fa8 	ldr	r0, [pc, #4008]	; 2f90 <Java_com_geohot_towelroot_TowelRoot_rootTheShit+0x1e20>
    1fe4:	e24b1a02 	sub	r1, fp, #8192	; 0x2000
    1fe8:	e3472f2b 	movt	r2, #32555	; 0x7f2b
    1fec:	e08f0000 	add	r0, pc, r0
    1ff0:	e5010164 	str	r0, [r1, #-356]	; 0x164
    1ff4:	e59f0f98 	ldr	r0, [pc, #3992]	; 2f94 <Java_com_geohot_towelroot_TowelRoot_rootTheShit+0x1e24>
    1ff8:	e24b1a02 	sub	r1, fp, #8192	; 0x2000
    1ffc:	e08f0000 	add	r0, pc, r0
    2000:	e0880000 	add	r0, r8, r0
    2004:	e5010168 	str	r0, [r1, #-360]	; 0x168
    2008:	e59f0f88 	ldr	r0, [pc, #3976]	; 2f98 <Java_com_geohot_towelroot_TowelRoot_rootTheShit+0x1e28>
    200c:	e24b1a02 	sub	r1, fp, #8192	; 0x2000
    2010:	e30584d5 	movw	r8, #21717	; 0x54d5
    2014:	e08f0000 	add	r0, pc, r0
    2018:	e501016c 	str	r0, [r1, #-364]	; 0x16c
    201c:	e30d0f0a 	movw	r0, #57098	; 0xdf0a
    2020:	e3488e5b 	movt	r8, #36443	; 0x8e5b
    2024:	e34f0b89 	movt	r0, #64393	; 0xfb89
    2028:	ea000005 	b	2044 <Java_com_geohot_towelroot_TowelRoot_rootTheShit+0xed4>
    202c:	e5960014 	ldr	r0, [r6, #20]
    2030:	e580c000 	str	ip, [r0]
    2034:	e5960018 	ldr	r0, [r6, #24]
    2038:	e580c000 	str	ip, [r0]
    203c:	e30c01fa 	movw	r0, #49658	; 0xc1fa
    2040:	e3490ad1 	movt	r0, #39633	; 0x9ad1
    2044:	e1500008 	cmp	r0, r8
    2048:	ca000002 	bgt	2058 <Java_com_geohot_towelroot_TowelRoot_rootTheShit+0xee8>
    204c:	e150000a 	cmp	r0, sl
    2050:	1afffffb 	bne	2044 <Java_com_geohot_towelroot_TowelRoot_rootTheShit+0xed4>
    2054:	eafffff4 	b	202c <Java_com_geohot_towelroot_TowelRoot_rootTheShit+0xebc>
    2058:	e30a198b 	movw	r1, #43403	; 0xa98b
    205c:	e349130a 	movt	r1, #37642	; 0x930a
    2060:	e1500001 	cmp	r0, r1
    2064:	ca000002 	bgt	2074 <Java_com_geohot_towelroot_TowelRoot_rootTheShit+0xf04>
    2068:	e1500005 	cmp	r0, r5
    206c:	1afffff4 	bne	2044 <Java_com_geohot_towelroot_TowelRoot_rootTheShit+0xed4>
    2070:	ea000e18 	b	58d8 <Java_com_geohot_towelroot_TowelRoot_rootTheShit+0x4768>
    2074:	e1500007 	cmp	r0, r7
    2078:	ca000004 	bgt	2090 <Java_com_geohot_towelroot_TowelRoot_rootTheShit+0xf20>
    207c:	e1500004 	cmp	r0, r4
    2080:	1affffef 	bne	2044 <Java_com_geohot_towelroot_TowelRoot_rootTheShit+0xed4>
    2084:	e3060de1 	movw	r0, #28129	; 0x6de1
    2088:	e341067d 	movt	r0, #5757	; 0x167d
    208c:	eaffffec 	b	2044 <Java_com_geohot_towelroot_TowelRoot_rootTheShit+0xed4>
    2090:	e30c110f 	movw	r1, #49423	; 0xc10f
    2094:	e34919ae 	movt	r1, #39342	; 0x99ae
    2098:	e1500001 	cmp	r0, r1
    209c:	ca00004c 	bgt	21d4 <Java_com_geohot_towelroot_TowelRoot_rootTheShit+0x1064>
    20a0:	e1500003 	cmp	r0, r3
    20a4:	1affffe6 	bne	2044 <Java_com_geohot_towelroot_TowelRoot_rootTheShit+0xed4>
    20a8:	e24d0008 	sub	r0, sp, #8
    20ac:	e1a0d000 	mov	sp, r0
    20b0:	e5860000 	str	r0, [r6]
    20b4:	e24d0008 	sub	r0, sp, #8
    20b8:	e1a0d000 	mov	sp, r0
    20bc:	e5860004 	str	r0, [r6, #4]
    20c0:	e24d0008 	sub	r0, sp, #8
    20c4:	e1a0d000 	mov	sp, r0
    20c8:	e5860008 	str	r0, [r6, #8]
    20cc:	e24d0008 	sub	r0, sp, #8
    20d0:	e1a0d000 	mov	sp, r0
    20d4:	e586000c 	str	r0, [r6, #12]
    20d8:	e24d0008 	sub	r0, sp, #8
    20dc:	e1a0d000 	mov	sp, r0
    20e0:	e5860010 	str	r0, [r6, #16]
    20e4:	e24d0008 	sub	r0, sp, #8
    20e8:	e1a0d000 	mov	sp, r0
    20ec:	e5860014 	str	r0, [r6, #20]
    20f0:	e24d0008 	sub	r0, sp, #8
    20f4:	e1a0d000 	mov	sp, r0
    20f8:	e5860018 	str	r0, [r6, #24]
    20fc:	e24d0008 	sub	r0, sp, #8
    2100:	e1a0d000 	mov	sp, r0
    2104:	e586001c 	str	r0, [r6, #28]
    2108:	e24d0008 	sub	r0, sp, #8
    210c:	e1a0d000 	mov	sp, r0
    2110:	e5860020 	str	r0, [r6, #32]
    2114:	e24d0008 	sub	r0, sp, #8
    2118:	e1a0d000 	mov	sp, r0
    211c:	e5860024 	str	r0, [r6, #36]	; 0x24
    2120:	e24d0008 	sub	r0, sp, #8
    2124:	e1a0d000 	mov	sp, r0
    2128:	e5860028 	str	r0, [r6, #40]	; 0x28
    212c:	e24d0008 	sub	r0, sp, #8
    2130:	e1a0d000 	mov	sp, r0
    2134:	e586002c 	str	r0, [r6, #44]	; 0x2c
    2138:	e24d0008 	sub	r0, sp, #8
    213c:	e1a0d000 	mov	sp, r0
    2140:	e5860030 	str	r0, [r6, #48]	; 0x30
    2144:	e24d0008 	sub	r0, sp, #8
    2148:	e1a0d000 	mov	sp, r0
    214c:	e5860034 	str	r0, [r6, #52]	; 0x34
    2150:	e24d0a01 	sub	r0, sp, #4096	; 0x1000
    2154:	e1a0d000 	mov	sp, r0
    2158:	e24b8a02 	sub	r8, fp, #8192	; 0x2000
    215c:	e5860038 	str	r0, [r6, #56]	; 0x38
    2160:	e518006c 	ldr	r0, [r8, #-108]	; 0x6c
    2164:	e5901000 	ldr	r1, [r0]
    2168:	e24dd010 	sub	sp, sp, #16
    216c:	e1a0a003 	mov	sl, r3
    2170:	e3a000f0 	mov	r0, #240	; 0xf0
    2174:	e3a02006 	mov	r2, #6
    2178:	e3a03001 	mov	r3, #1
    217c:	e58dc000 	str	ip, [sp]
    2180:	e1a0900e 	mov	r9, lr
    2184:	e58dc004 	str	ip, [sp, #4]
    2188:	e58dc008 	str	ip, [sp, #8]
    218c:	ebfffb8b 	bl	fc0 <Java_com_geohot_towelroot_TowelRoot_rootTheShit-0x1b0>
    2190:	e3082e01 	movw	r2, #36353	; 0x8e01
    2194:	e30584d5 	movw	r8, #21717	; 0x54d5
    2198:	e1a0e009 	mov	lr, r9
    219c:	e30c9110 	movw	r9, #49424	; 0xc110
    21a0:	e1a0300a 	mov	r3, sl
    21a4:	e30fae8f 	movw	sl, #65167	; 0xfe8f
    21a8:	e3472f2b 	movt	r2, #32555	; 0x7f2b
    21ac:	e348abef 	movt	sl, #35823	; 0x8bef
    21b0:	e34999ae 	movt	r9, #39342	; 0x99ae
    21b4:	e3488e5b 	movt	r8, #36443	; 0x8e5b
    21b8:	e3a0c000 	mov	ip, #0
    21bc:	e28dd010 	add	sp, sp, #16
    21c0:	e5961004 	ldr	r1, [r6, #4]
    21c4:	e5810000 	str	r0, [r1]
    21c8:	e30e0c57 	movw	r0, #60503	; 0xec57
    21cc:	e3490d99 	movt	r0, #40345	; 0x9d99
    21d0:	eaffff9b 	b	2044 <Java_com_geohot_towelroot_TowelRoot_rootTheShit+0xed4>
    21d4:	e3031d1d 	movw	r1, #15645	; 0x3d1d
    21d8:	e3491ab7 	movt	r1, #39607	; 0x9ab7
    21dc:	e1500001 	cmp	r0, r1
    21e0:	ca000008 	bgt	2208 <Java_com_geohot_towelroot_TowelRoot_rootTheShit+0x1098>
    21e4:	e1500009 	cmp	r0, r9
    21e8:	1affff95 	bne	2044 <Java_com_geohot_towelroot_TowelRoot_rootTheShit+0xed4>
    21ec:	e5d6003e 	ldrb	r0, [r6, #62]	; 0x3e
    21f0:	e3500000 	cmp	r0, #0
    21f4:	e30509ee 	movw	r0, #23022	; 0x59ee
    21f8:	e34e094c 	movt	r0, #59724	; 0xe94c
    21fc:	13010bb1 	movwne	r0, #7089	; 0x1bb1
    2200:	13420829 	movtne	r0, #10281	; 0x2829
    2204:	eaffff8e 	b	2044 <Java_com_geohot_towelroot_TowelRoot_rootTheShit+0xed4>
    2208:	e30b1e55 	movw	r1, #48725	; 0xbe55
    220c:	e3471fa7 	movt	r1, #32679	; 0x7fa7
    2210:	e1500001 	cmp	r0, r1
    2214:	ca00001d 	bgt	2290 <Java_com_geohot_towelroot_TowelRoot_rootTheShit+0x1120>
    2218:	e3081e00 	movw	r1, #36352	; 0x8e00
    221c:	e3471f2b 	movt	r1, #32555	; 0x7f2b
    2220:	e1500001 	cmp	r0, r1
    2224:	ca00001e 	bgt	22a4 <Java_com_geohot_towelroot_TowelRoot_rootTheShit+0x1134>
    2228:	e30c11f9 	movw	r1, #49657	; 0xc1f9
    222c:	e3491ad1 	movt	r1, #39633	; 0x9ad1
    2230:	e1500001 	cmp	r0, r1
    2234:	ca00001d 	bgt	22b0 <Java_com_geohot_towelroot_TowelRoot_rootTheShit+0x1140>
    2238:	e3031d1e 	movw	r1, #15646	; 0x3d1e
    223c:	e3491ab7 	movt	r1, #39607	; 0x9ab7
    2240:	e1500001 	cmp	r0, r1
    2244:	1affff7e 	bne	2044 <Java_com_geohot_towelroot_TowelRoot_rootTheShit+0xed4>
    2248:	e3a0000a 	mov	r0, #10
    224c:	e1a0a003 	mov	sl, r3
    2250:	e1a0900e 	mov	r9, lr
    2254:	ebfffb38 	bl	f3c <Java_com_geohot_towelroot_TowelRoot_rootTheShit-0x234>
    2258:	e3082e01 	movw	r2, #36353	; 0x8e01
    225c:	e30584d5 	movw	r8, #21717	; 0x54d5
    2260:	e303034d 	movw	r0, #13133	; 0x334d
    2264:	e1a0e009 	mov	lr, r9
    2268:	e30c9110 	movw	r9, #49424	; 0xc110
    226c:	e1a0300a 	mov	r3, sl
    2270:	e30fae8f 	movw	sl, #65167	; 0xfe8f
    2274:	e3472f2b 	movt	r2, #32555	; 0x7f2b
    2278:	e348abef 	movt	sl, #35823	; 0x8bef
    227c:	e34999ae 	movt	r9, #39342	; 0x99ae
    2280:	e3488e5b 	movt	r8, #36443	; 0x8e5b
    2284:	e3a0c000 	mov	ip, #0
    2288:	e34103f6 	movt	r0, #5110	; 0x13f6
    228c:	eaffff6c 	b	2044 <Java_com_geohot_towelroot_TowelRoot_rootTheShit+0xed4>
    2290:	e150000e 	cmp	r0, lr
    2294:	1affff6a 	bne	2044 <Java_com_geohot_towelroot_TowelRoot_rootTheShit+0xed4>
    2298:	e3010cab 	movw	r0, #7339	; 0x1cab
    229c:	e342030f 	movt	r0, #8975	; 0x230f
    22a0:	eaffff67 	b	2044 <Java_com_geohot_towelroot_TowelRoot_rootTheShit+0xed4>
    22a4:	e1500002 	cmp	r0, r2
    22a8:	1affff65 	bne	2044 <Java_com_geohot_towelroot_TowelRoot_rootTheShit+0xed4>
    22ac:	ea0009dd 	b	4a28 <Java_com_geohot_towelroot_TowelRoot_rootTheShit+0x38b8>
    22b0:	e30412b5 	movw	r1, #17077	; 0x42b5
    22b4:	e3491b2b 	movt	r1, #39723	; 0x9b2b
    22b8:	e1500001 	cmp	r0, r1
    22bc:	ca000004 	bgt	22d4 <Java_com_geohot_towelroot_TowelRoot_rootTheShit+0x1164>
    22c0:	e30c11fa 	movw	r1, #49658	; 0xc1fa
    22c4:	e3491ad1 	movt	r1, #39633	; 0x9ad1
    22c8:	e1500001 	cmp	r0, r1
    22cc:	1affff5c 	bne	2044 <Java_com_geohot_towelroot_TowelRoot_rootTheShit+0xed4>
    22d0:	ea000ca3 	b	5564 <Java_com_geohot_towelroot_TowelRoot_rootTheShit+0x43f4>
    22d4:	e30e1c56 	movw	r1, #60502	; 0xec56
    22d8:	e3491d99 	movt	r1, #40345	; 0x9d99
    22dc:	e1500001 	cmp	r0, r1
    22e0:	ca000006 	bgt	2300 <Java_com_geohot_towelroot_TowelRoot_rootTheShit+0x1190>
    22e4:	e30412b6 	movw	r1, #17078	; 0x42b6
    22e8:	e3491b2b 	movt	r1, #39723	; 0x9b2b
    22ec:	e1500001 	cmp	r0, r1
    22f0:	1affff53 	bne	2044 <Java_com_geohot_towelroot_TowelRoot_rootTheShit+0xed4>
    22f4:	e30200ca 	movw	r0, #8394	; 0x20ca
    22f8:	e34e0430 	movt	r0, #58416	; 0xe430
    22fc:	eaffff50 	b	2044 <Java_com_geohot_towelroot_TowelRoot_rootTheShit+0xed4>
    2300:	e3051808 	movw	r1, #22536	; 0x5808
    2304:	e34a105c 	movt	r1, #41052	; 0xa05c
    2308:	e1500001 	cmp	r0, r1
    230c:	ca000004 	bgt	2324 <Java_com_geohot_towelroot_TowelRoot_rootTheShit+0x11b4>
    2310:	e30e1c57 	movw	r1, #60503	; 0xec57
    2314:	e3491d99 	movt	r1, #40345	; 0x9d99
    2318:	e1500001 	cmp	r0, r1
    231c:	1affff48 	bne	2044 <Java_com_geohot_towelroot_TowelRoot_rootTheShit+0xed4>
    2320:	ea000313 	b	2f74 <Java_com_geohot_towelroot_TowelRoot_rootTheShit+0x1e04>
    2324:	e3021ee2 	movw	r1, #12002	; 0x2ee2
    2328:	e34b1168 	movt	r1, #45416	; 0xb168
    232c:	e1500001 	cmp	r0, r1
    2330:	ca000021 	bgt	23bc <Java_com_geohot_towelroot_TowelRoot_rootTheShit+0x124c>
    2334:	e3051809 	movw	r1, #22537	; 0x5809
    2338:	e34a105c 	movt	r1, #41052	; 0xa05c
    233c:	e1500001 	cmp	r0, r1
    2340:	1affff3f 	bne	2044 <Java_com_geohot_towelroot_TowelRoot_rootTheShit+0xed4>
    2344:	e24b8a02 	sub	r8, fp, #8192	; 0x2000
    2348:	e3a00004 	mov	r0, #4
    234c:	e1a0a003 	mov	sl, r3
    2350:	e1a0900e 	mov	r9, lr
    2354:	e5181070 	ldr	r1, [r8, #-112]	; 0x70
    2358:	e24b8a02 	sub	r8, fp, #8192	; 0x2000
    235c:	e5182074 	ldr	r2, [r8, #-116]	; 0x74
    2360:	ebfffaf2 	bl	f30 <Java_com_geohot_towelroot_TowelRoot_rootTheShit-0x240>
    2364:	e24b1a02 	sub	r1, fp, #8192	; 0x2000
    2368:	e1a0e009 	mov	lr, r9
    236c:	e3082e01 	movw	r2, #36353	; 0x8e01
    2370:	e30c9110 	movw	r9, #49424	; 0xc110
    2374:	e5110078 	ldr	r0, [r1, #-120]	; 0x78
    2378:	e30584d5 	movw	r8, #21717	; 0x54d5
    237c:	e1a0300a 	mov	r3, sl
    2380:	e30fae8f 	movw	sl, #65167	; 0xfe8f
    2384:	e3472f2b 	movt	r2, #32555	; 0x7f2b
    2388:	e348abef 	movt	sl, #35823	; 0x8bef
    238c:	e5900000 	ldr	r0, [r0]
    2390:	e34999ae 	movt	r9, #39342	; 0x99ae
    2394:	e50be020 	str	lr, [fp, #-32]
    2398:	e24bea02 	sub	lr, fp, #8192	; 0x2000
    239c:	e3488e5b 	movt	r8, #36443	; 0x8e5b
    23a0:	e3a0c000 	mov	ip, #0
    23a4:	e51e107c 	ldr	r1, [lr, #-124]	; 0x7c
    23a8:	e5810000 	str	r0, [r1]
    23ac:	e3040215 	movw	r0, #16917	; 0x4215
    23b0:	e3470d92 	movt	r0, #32146	; 0x7d92
    23b4:	e51be020 	ldr	lr, [fp, #-32]
    23b8:	eaffff21 	b	2044 <Java_com_geohot_towelroot_TowelRoot_rootTheShit+0xed4>
    23bc:	e306157d 	movw	r1, #25981	; 0x657d
    23c0:	e34b133e 	movt	r1, #45886	; 0xb33e
    23c4:	e1500001 	cmp	r0, r1
    23c8:	ca000004 	bgt	23e0 <Java_com_geohot_towelroot_TowelRoot_rootTheShit+0x1270>
    23cc:	e3021ee3 	movw	r1, #12003	; 0x2ee3
    23d0:	e34b1168 	movt	r1, #45416	; 0xb168
    23d4:	e1500001 	cmp	r0, r1
    23d8:	01a0000e 	moveq	r0, lr
    23dc:	eaffff18 	b	2044 <Java_com_geohot_towelroot_TowelRoot_rootTheShit+0xed4>
    23e0:	e30d1b7e 	movw	r1, #56190	; 0xdb7e
    23e4:	e34b15e9 	movt	r1, #46569	; 0xb5e9
    23e8:	e1500001 	cmp	r0, r1
    23ec:	ca00002c 	bgt	24a4 <Java_com_geohot_towelroot_TowelRoot_rootTheShit+0x1334>
    23f0:	e306157e 	movw	r1, #25982	; 0x657e
    23f4:	e34b133e 	movt	r1, #45886	; 0xb33e
    23f8:	e1500001 	cmp	r0, r1
    23fc:	1affff10 	bne	2044 <Java_com_geohot_towelroot_TowelRoot_rootTheShit+0xed4>
    2400:	e5960034 	ldr	r0, [r6, #52]	; 0x34
    2404:	e3011fff 	movw	r1, #8191	; 0x1fff
    2408:	e24b3a02 	sub	r3, fp, #8192	; 0x2000
    240c:	e1a05002 	mov	r5, r2
    2410:	e1a0700e 	mov	r7, lr
    2414:	e5900000 	ldr	r0, [r0]
    2418:	e0201001 	eor	r1, r0, r1
    241c:	e0010000 	and	r0, r1, r0
    2420:	e5131080 	ldr	r1, [r3, #-128]	; 0x80
    2424:	e5810000 	str	r0, [r1]
    2428:	e24b1a02 	sub	r1, fp, #8192	; 0x2000
    242c:	e5960014 	ldr	r0, [r6, #20]
    2430:	e5116084 	ldr	r6, [r1, #-132]	; 0x84
    2434:	e5904000 	ldr	r4, [r0]
    2438:	e1a00006 	mov	r0, r6
    243c:	ebfffaca 	bl	f6c <Java_com_geohot_towelroot_TowelRoot_rootTheShit-0x204>
    2440:	e1a00004 	mov	r0, r4
    2444:	e3a0100c 	mov	r1, #12
    2448:	ebfffadf 	bl	fcc <Java_com_geohot_towelroot_TowelRoot_rootTheShit-0x1a4>
    244c:	e24b4a02 	sub	r4, fp, #8192	; 0x2000
    2450:	e1a01006 	mov	r1, r6
    2454:	e5140088 	ldr	r0, [r4, #-136]	; 0x88
    2458:	ebfffac6 	bl	f78 <Java_com_geohot_towelroot_TowelRoot_rootTheShit-0x1f8>
    245c:	e1a00006 	mov	r0, r6
    2460:	ebfffadc 	bl	fd8 <Java_com_geohot_towelroot_TowelRoot_rootTheShit-0x198>
    2464:	e3093e8e 	movw	r3, #40590	; 0x9e8e
    2468:	e30a498c 	movw	r4, #43404	; 0xa98c
    246c:	e30d0c6d 	movw	r0, #56429	; 0xdc6d
    2470:	e1a0e007 	mov	lr, r7
    2474:	e3097e8d 	movw	r7, #40589	; 0x9e8d
    2478:	e1a02005 	mov	r2, r5
    247c:	e30554d6 	movw	r5, #21718	; 0x54d6
    2480:	e24b1a02 	sub	r1, fp, #8192	; 0x2000
    2484:	e3493438 	movt	r3, #37944	; 0x9438
    2488:	e3497438 	movt	r7, #37944	; 0x9438
    248c:	e3485e5b 	movt	r5, #36443	; 0x8e5b
    2490:	e2416068 	sub	r6, r1, #104	; 0x68
    2494:	e3a0c000 	mov	ip, #0
    2498:	e349430a 	movt	r4, #37642	; 0x930a
    249c:	e3440051 	movt	r0, #16465	; 0x4051
    24a0:	eafffee7 	b	2044 <Java_com_geohot_towelroot_TowelRoot_rootTheShit+0xed4>
    24a4:	e3031fdc 	movw	r1, #16348	; 0x3fdc
    24a8:	e34b18b6 	movt	r1, #47286	; 0xb8b6
    24ac:	e1500001 	cmp	r0, r1
    24b0:	ca000010 	bgt	24f8 <Java_com_geohot_towelroot_TowelRoot_rootTheShit+0x1388>
    24b4:	e30d1b7f 	movw	r1, #56191	; 0xdb7f
    24b8:	e34b15e9 	movt	r1, #46569	; 0xb5e9
    24bc:	e1500001 	cmp	r0, r1
    24c0:	1afffedf 	bne	2044 <Java_com_geohot_towelroot_TowelRoot_rootTheShit+0xed4>
    24c4:	e5960028 	ldr	r0, [r6, #40]	; 0x28
    24c8:	e5900000 	ldr	r0, [r0]
    24cc:	e5961028 	ldr	r1, [r6, #40]	; 0x28
    24d0:	e1a00400 	lsl	r0, r0, #8
    24d4:	e5810000 	str	r0, [r1]
    24d8:	e5960028 	ldr	r0, [r6, #40]	; 0x28
    24dc:	e5900000 	ldr	r0, [r0]
    24e0:	e3500103 	cmp	r0, #-1073741824	; 0xc0000000
    24e4:	e30f0cb4 	movw	r0, #64692	; 0xfcb4
    24e8:	e34f0382 	movt	r0, #62338	; 0xf382
    24ec:	330e086d 	movwcc	r0, #59501	; 0xe86d
    24f0:	3346076e 	movtcc	r0, #26478	; 0x676e
    24f4:	eafffed2 	b	2044 <Java_com_geohot_towelroot_TowelRoot_rootTheShit+0xed4>
    24f8:	e30a1f77 	movw	r1, #44919	; 0xaf77
    24fc:	e34c1002 	movt	r1, #49154	; 0xc002
    2500:	e1500001 	cmp	r0, r1
    2504:	ca00000f 	bgt	2548 <Java_com_geohot_towelroot_TowelRoot_rootTheShit+0x13d8>
    2508:	e3031fdd 	movw	r1, #16349	; 0x3fdd
    250c:	e34b18b6 	movt	r1, #47286	; 0xb8b6
    2510:	e1500001 	cmp	r0, r1
    2514:	1afffeca 	bne	2044 <Java_com_geohot_towelroot_TowelRoot_rootTheShit+0xed4>
    2518:	e5960028 	ldr	r0, [r6, #40]	; 0x28
    251c:	e24b1a02 	sub	r1, fp, #8192	; 0x2000
    2520:	e580c000 	str	ip, [r0]
    2524:	e511008c 	ldr	r0, [r1, #-140]	; 0x8c
    2528:	e5900000 	ldr	r0, [r0]
    252c:	e590000c 	ldr	r0, [r0, #12]
    2530:	e3500000 	cmp	r0, #0
    2534:	e3060efc 	movw	r0, #28412	; 0x6efc
    2538:	e3400da2 	movt	r0, #3490	; 0xda2
    253c:	13020b65 	movwne	r0, #11109	; 0x2b65
    2540:	13430998 	movtne	r0, #14744	; 0x3998
    2544:	eafffebe 	b	2044 <Java_com_geohot_towelroot_TowelRoot_rootTheShit+0xed4>
    2548:	e3011c6b 	movw	r1, #7275	; 0x1c6b
    254c:	e34c16ff 	movt	r1, #50943	; 0xc6ff
    2550:	e1500001 	cmp	r0, r1
    2554:	ca00000a 	bgt	2584 <Java_com_geohot_towelroot_TowelRoot_rootTheShit+0x1414>
    2558:	e30a1f78 	movw	r1, #44920	; 0xaf78
    255c:	e34c1002 	movt	r1, #49154	; 0xc002
    2560:	e1500001 	cmp	r0, r1
    2564:	1afffeb6 	bne	2044 <Java_com_geohot_towelroot_TowelRoot_rootTheShit+0xed4>
    2568:	e5d6003d 	ldrb	r0, [r6, #61]	; 0x3d
    256c:	e3500000 	cmp	r0, #0
    2570:	e30402b6 	movw	r0, #17078	; 0x42b6
    2574:	e3490b2b 	movt	r0, #39723	; 0x9b2b
    2578:	130a00a3 	movwne	r0, #41123	; 0xa0a3
    257c:	134600ef 	movtne	r0, #24815	; 0x60ef
    2580:	eafffeaf 	b	2044 <Java_com_geohot_towelroot_TowelRoot_rootTheShit+0xed4>
    2584:	e30218bc 	movw	r1, #10428	; 0x28bc
    2588:	e34c173f 	movt	r1, #51007	; 0xc73f
    258c:	e1500001 	cmp	r0, r1
    2590:	ca000004 	bgt	25a8 <Java_com_geohot_towelroot_TowelRoot_rootTheShit+0x1438>
    2594:	e3011c6c 	movw	r1, #7276	; 0x1c6c
    2598:	e34c16ff 	movt	r1, #50943	; 0xc6ff
    259c:	e1500001 	cmp	r0, r1
    25a0:	1afffea7 	bne	2044 <Java_com_geohot_towelroot_TowelRoot_rootTheShit+0xed4>
    25a4:	ea0003ec 	b	355c <Java_com_geohot_towelroot_TowelRoot_rootTheShit+0x23ec>
    25a8:	e3061a2e 	movw	r1, #27182	; 0x6a2e
    25ac:	e34c1812 	movt	r1, #51218	; 0xc812
    25b0:	e1500001 	cmp	r0, r1
    25b4:	ca000004 	bgt	25cc <Java_com_geohot_towelroot_TowelRoot_rootTheShit+0x145c>
    25b8:	e30218bd 	movw	r1, #10429	; 0x28bd
    25bc:	e34c173f 	movt	r1, #51007	; 0xc73f
    25c0:	e1500001 	cmp	r0, r1
    25c4:	1afffe9e 	bne	2044 <Java_com_geohot_towelroot_TowelRoot_rootTheShit+0xed4>
    25c8:	ea000be5 	b	5564 <Java_com_geohot_towelroot_TowelRoot_rootTheShit+0x43f4>
    25cc:	e30c169f 	movw	r1, #50847	; 0xc69f
    25d0:	e34c188d 	movt	r1, #51341	; 0xc88d
    25d4:	e1500001 	cmp	r0, r1
    25d8:	ca000016 	bgt	2638 <Java_com_geohot_towelroot_TowelRoot_rootTheShit+0x14c8>
    25dc:	e3061a2f 	movw	r1, #27183	; 0x6a2f
    25e0:	e34c1812 	movt	r1, #51218	; 0xc812
    25e4:	e1500001 	cmp	r0, r1
    25e8:	1afffe95 	bne	2044 <Java_com_geohot_towelroot_TowelRoot_rootTheShit+0xed4>
    25ec:	e3a0000a 	mov	r0, #10
    25f0:	e1a08009 	mov	r8, r9
    25f4:	e1a0900a 	mov	r9, sl
    25f8:	e1a0a003 	mov	sl, r3
    25fc:	ebfffa78 	bl	fe4 <Java_com_geohot_towelroot_TowelRoot_rootTheShit-0x18c>
    2600:	e30b0e56 	movw	r0, #48726	; 0xbe56
    2604:	e1a0300a 	mov	r3, sl
    2608:	e3470fa7 	movt	r0, #32679	; 0x7fa7
    260c:	e1a0a009 	mov	sl, r9
    2610:	e1a0e000 	mov	lr, r0
    2614:	e3080e01 	movw	r0, #36353	; 0x8e01
    2618:	e3470f2b 	movt	r0, #32555	; 0x7f2b
    261c:	e1a09008 	mov	r9, r8
    2620:	e1a02000 	mov	r2, r0
    2624:	e30504d5 	movw	r0, #21717	; 0x54d5
    2628:	e3480e5b 	movt	r0, #36443	; 0x8e5b
    262c:	e3a0c000 	mov	ip, #0
    2630:	e1a08000 	mov	r8, r0
    2634:	ea0007da 	b	45a4 <Java_com_geohot_towelroot_TowelRoot_rootTheShit+0x3434>
    2638:	e30519a6 	movw	r1, #22950	; 0x59a6
    263c:	e34c1be2 	movt	r1, #52194	; 0xcbe2
    2640:	e1500001 	cmp	r0, r1
    2644:	ca000010 	bgt	268c <Java_com_geohot_towelroot_TowelRoot_rootTheShit+0x151c>
    2648:	e30c16a0 	movw	r1, #50848	; 0xc6a0
    264c:	e3a0c000 	mov	ip, #0
    2650:	e34c188d 	movt	r1, #51341	; 0xc88d
    2654:	e1500001 	cmp	r0, r1
    2658:	e3091e8e 	movw	r1, #40590	; 0x9e8e
    265c:	e3491438 	movt	r1, #37944	; 0x9438
    2660:	e1a03001 	mov	r3, r1
    2664:	e3081e01 	movw	r1, #36353	; 0x8e01
    2668:	e3471f2b 	movt	r1, #32555	; 0x7f2b
    266c:	e1a02001 	mov	r2, r1
    2670:	e30b1e56 	movw	r1, #48726	; 0xbe56
    2674:	e3471fa7 	movt	r1, #32679	; 0x7fa7
    2678:	e1a0e001 	mov	lr, r1
    267c:	1afffe70 	bne	2044 <Java_com_geohot_towelroot_TowelRoot_rootTheShit+0xed4>
    2680:	e30208bd 	movw	r0, #10429	; 0x28bd
    2684:	e34c073f 	movt	r0, #51007	; 0xc73f
    2688:	eafffe6d 	b	2044 <Java_com_geohot_towelroot_TowelRoot_rootTheShit+0xed4>
    268c:	e30a1c65 	movw	r1, #44133	; 0xac65
    2690:	e34d189d 	movt	r1, #55453	; 0xd89d
    2694:	e1500001 	cmp	r0, r1
    2698:	ca000020 	bgt	2720 <Java_com_geohot_towelroot_TowelRoot_rootTheShit+0x15b0>
    269c:	e30519a7 	movw	r1, #22951	; 0x59a7
    26a0:	e3a0c000 	mov	ip, #0
    26a4:	e34c1be2 	movt	r1, #52194	; 0xcbe2
    26a8:	e1500001 	cmp	r0, r1
    26ac:	e3091e8e 	movw	r1, #40590	; 0x9e8e
    26b0:	e3491438 	movt	r1, #37944	; 0x9438
    26b4:	e1a03001 	mov	r3, r1
    26b8:	e3081e01 	movw	r1, #36353	; 0x8e01
    26bc:	e3471f2b 	movt	r1, #32555	; 0x7f2b
    26c0:	e1a02001 	mov	r2, r1
    26c4:	e30b1e56 	movw	r1, #48726	; 0xbe56
    26c8:	e3471fa7 	movt	r1, #32679	; 0x7fa7
    26cc:	e1a0e001 	mov	lr, r1
    26d0:	1afffe5b 	bne	2044 <Java_com_geohot_towelroot_TowelRoot_rootTheShit+0xed4>
    26d4:	e24bea02 	sub	lr, fp, #8192	; 0x2000
    26d8:	e51e0090 	ldr	r0, [lr, #-144]	; 0x90
    26dc:	e24bea01 	sub	lr, fp, #4096	; 0x1000
    26e0:	e5902000 	ldr	r2, [r0]
    26e4:	e24e0028 	sub	r0, lr, #40	; 0x28
    26e8:	e24bea02 	sub	lr, fp, #8192	; 0x2000
    26ec:	e51e1094 	ldr	r1, [lr, #-148]	; 0x94
    26f0:	ebfffa3e 	bl	ff0 <Java_com_geohot_towelroot_TowelRoot_rootTheShit-0x180>
    26f4:	e24bea01 	sub	lr, fp, #4096	; 0x1000
    26f8:	e24e0028 	sub	r0, lr, #40	; 0x28
    26fc:	e24bea02 	sub	lr, fp, #8192	; 0x2000
    2700:	e51e1098 	ldr	r1, [lr, #-152]	; 0x98
    2704:	ebfffa3c 	bl	ffc <Java_com_geohot_towelroot_TowelRoot_rootTheShit-0x174>
    2708:	e24bea02 	sub	lr, fp, #8192	; 0x2000
    270c:	e305144c 	movw	r1, #21580	; 0x544c
    2710:	e50b0028 	str	r0, [fp, #-40]	; 0x28
    2714:	e3401801 	movt	r1, #2049	; 0x801
    2718:	e50e0170 	str	r0, [lr, #-368]	; 0x170
    271c:	ea00001d 	b	2798 <Java_com_geohot_towelroot_TowelRoot_rootTheShit+0x1628>
    2720:	e3001bd3 	movw	r1, #3027	; 0xbd3
    2724:	e34d1f71 	movt	r1, #57201	; 0xdf71
    2728:	e1500001 	cmp	r0, r1
    272c:	ca000052 	bgt	287c <Java_com_geohot_towelroot_TowelRoot_rootTheShit+0x170c>
    2730:	e30a1c66 	movw	r1, #44134	; 0xac66
    2734:	e3a0c000 	mov	ip, #0
    2738:	e34d189d 	movt	r1, #55453	; 0xd89d
    273c:	e1500001 	cmp	r0, r1
    2740:	e3091e8e 	movw	r1, #40590	; 0x9e8e
    2744:	e3491438 	movt	r1, #37944	; 0x9438
    2748:	e1a03001 	mov	r3, r1
    274c:	e3081e01 	movw	r1, #36353	; 0x8e01
    2750:	e3471f2b 	movt	r1, #32555	; 0x7f2b
    2754:	e1a02001 	mov	r2, r1
    2758:	e30b1e56 	movw	r1, #48726	; 0xbe56
    275c:	e3471fa7 	movt	r1, #32679	; 0x7fa7
    2760:	e1a0e001 	mov	lr, r1
    2764:	1afffe36 	bne	2044 <Java_com_geohot_towelroot_TowelRoot_rootTheShit+0xed4>
    2768:	ea0005bc 	b	3e60 <Java_com_geohot_towelroot_TowelRoot_rootTheShit+0x2cf0>
    276c:	e300176e 	movw	r1, #1902	; 0x76e
    2770:	e50b0024 	str	r0, [fp, #-36]	; 0x24
    2774:	e3401bf6 	movt	r1, #3062	; 0xbf6
    2778:	ea000006 	b	2798 <Java_com_geohot_towelroot_TowelRoot_rootTheShit+0x1628>
    277c:	e3052fd9 	movw	r2, #24537	; 0x5fd9
    2780:	e3e00000 	mvn	r0, #0
    2784:	e3452c66 	movt	r2, #23654	; 0x5c66
    2788:	e1510002 	cmp	r1, r2
    278c:	e303189c 	movw	r1, #14492	; 0x389c
    2790:	e34a15fa 	movt	r1, #42490	; 0xa5fa
    2794:	1a000c53 	bne	58e8 <Java_com_geohot_towelroot_TowelRoot_rootTheShit+0x4778>
    2798:	e305244b 	movw	r2, #21579	; 0x544b
    279c:	e3402801 	movt	r2, #2049	; 0x801
    27a0:	e1510002 	cmp	r1, r2
    27a4:	ca000007 	bgt	27c8 <Java_com_geohot_towelroot_TowelRoot_rootTheShit+0x1658>
    27a8:	e30b2936 	movw	r2, #47414	; 0xb936
    27ac:	e303389c 	movw	r3, #14492	; 0x389c
    27b0:	e34227b0 	movt	r2, #10160	; 0x27b0
    27b4:	e34a35fa 	movt	r3, #42490	; 0xa5fa
    27b8:	e1510003 	cmp	r1, r3
    27bc:	e1a01002 	mov	r1, r2
    27c0:	0afffff4 	beq	2798 <Java_com_geohot_towelroot_TowelRoot_rootTheShit+0x1628>
    27c4:	ea000c47 	b	58e8 <Java_com_geohot_towelroot_TowelRoot_rootTheShit+0x4778>
    27c8:	e3052fd8 	movw	r2, #24536	; 0x5fd8
    27cc:	e3452c66 	movt	r2, #23654	; 0x5c66
    27d0:	e1510002 	cmp	r1, r2
    27d4:	caffffe8 	bgt	277c <Java_com_geohot_towelroot_TowelRoot_rootTheShit+0x160c>
    27d8:	e305208d 	movw	r2, #20621	; 0x508d
    27dc:	e3442d5c 	movt	r2, #19804	; 0x4d5c
    27e0:	e1510002 	cmp	r1, r2
    27e4:	ca000008 	bgt	280c <Java_com_geohot_towelroot_TowelRoot_rootTheShit+0x169c>
    27e8:	e305244c 	movw	r2, #21580	; 0x544c
    27ec:	e3402801 	movt	r2, #2049	; 0x801
    27f0:	e1510002 	cmp	r1, r2
    27f4:	0a000019 	beq	2860 <Java_com_geohot_towelroot_TowelRoot_rootTheShit+0x16f0>
    27f8:	e30b2936 	movw	r2, #47414	; 0xb936
    27fc:	e34227b0 	movt	r2, #10160	; 0x27b0
    2800:	e1510002 	cmp	r1, r2
    2804:	0affffd8 	beq	276c <Java_com_geohot_towelroot_TowelRoot_rootTheShit+0x15fc>
    2808:	ea000059 	b	2974 <Java_com_geohot_towelroot_TowelRoot_rootTheShit+0x1804>
    280c:	e305008e 	movw	r0, #20622	; 0x508e
    2810:	e3440d5c 	movt	r0, #19804	; 0x4d5c
    2814:	e1510000 	cmp	r1, r0
    2818:	1a000c32 	bne	58e8 <Java_com_geohot_towelroot_TowelRoot_rootTheShit+0x4778>
    281c:	e24bea02 	sub	lr, fp, #8192	; 0x2000
    2820:	e3a01001 	mov	r1, #1
    2824:	e24e0028 	sub	r0, lr, #40	; 0x28
    2828:	e24bea02 	sub	lr, fp, #8192	; 0x2000
    282c:	e3a02a01 	mov	r2, #4096	; 0x1000
    2830:	e51e3170 	ldr	r3, [lr, #-368]	; 0x170
    2834:	ebfff9f3 	bl	1008 <Java_com_geohot_towelroot_TowelRoot_rootTheShit-0x168>
    2838:	e24bea02 	sub	lr, fp, #8192	; 0x2000
    283c:	e24e0028 	sub	r0, lr, #40	; 0x28
    2840:	e24bea02 	sub	lr, fp, #8192	; 0x2000
    2844:	e51e109c 	ldr	r1, [lr, #-156]	; 0x9c
    2848:	ebfff9f1 	bl	1014 <Java_com_geohot_towelroot_TowelRoot_rootTheShit-0x15c>
    284c:	e2800019 	add	r0, r0, #25
    2850:	ebfff9f2 	bl	1020 <Java_com_geohot_towelroot_TowelRoot_rootTheShit-0x150>
    2854:	e303189c 	movw	r1, #14492	; 0x389c
    2858:	e34a15fa 	movt	r1, #42490	; 0xa5fa
    285c:	eaffffcd 	b	2798 <Java_com_geohot_towelroot_TowelRoot_rootTheShit+0x1628>
    2860:	e51b1028 	ldr	r1, [fp, #-40]	; 0x28
    2864:	e3510000 	cmp	r1, #0
    2868:	e305108e 	movw	r1, #20622	; 0x508e
    286c:	e3441d5c 	movt	r1, #19804	; 0x4d5c
    2870:	03051fd9 	movweq	r1, #24537	; 0x5fd9
    2874:	03451c66 	movteq	r1, #23654	; 0x5c66
    2878:	eaffffc6 	b	2798 <Java_com_geohot_towelroot_TowelRoot_rootTheShit+0x1628>
    287c:	e30f1464 	movw	r1, #62564	; 0xf464
    2880:	e34e11c7 	movt	r1, #57799	; 0xe1c7
    2884:	e1500001 	cmp	r0, r1
    2888:	ca000042 	bgt	2998 <Java_com_geohot_towelroot_TowelRoot_rootTheShit+0x1828>
    288c:	e3001bd4 	movw	r1, #3028	; 0xbd4
    2890:	e3a0c000 	mov	ip, #0
    2894:	e34d1f71 	movt	r1, #57201	; 0xdf71
    2898:	e1500001 	cmp	r0, r1
    289c:	e3091e8e 	movw	r1, #40590	; 0x9e8e
    28a0:	e3491438 	movt	r1, #37944	; 0x9438
    28a4:	e1a03001 	mov	r3, r1
    28a8:	e3081e01 	movw	r1, #36353	; 0x8e01
    28ac:	e3471f2b 	movt	r1, #32555	; 0x7f2b
    28b0:	e1a02001 	mov	r2, r1
    28b4:	e30b1e56 	movw	r1, #48726	; 0xbe56
    28b8:	e3471fa7 	movt	r1, #32679	; 0x7fa7
    28bc:	e1a0e001 	mov	lr, r1
    28c0:	1afffddf 	bne	2044 <Java_com_geohot_towelroot_TowelRoot_rootTheShit+0xed4>
    28c4:	e3a00006 	mov	r0, #6
    28c8:	eb001370 	bl	7690 <Java_com_geohot_towelroot_TowelRoot_rootTheShit+0x6520>
    28cc:	e3a00007 	mov	r0, #7
    28d0:	eb00136e 	bl	7690 <Java_com_geohot_towelroot_TowelRoot_rootTheShit+0x6520>
    28d4:	e24bea02 	sub	lr, fp, #8192	; 0x2000
    28d8:	e59f0218 	ldr	r0, [pc, #536]	; 2af8 <Java_com_geohot_towelroot_TowelRoot_rootTheShit+0x1988>
    28dc:	e3a02000 	mov	r2, #0
    28e0:	e51e10a0 	ldr	r1, [lr, #-160]	; 0xa0
    28e4:	e24bea02 	sub	lr, fp, #8192	; 0x2000
    28e8:	e7900001 	ldr	r0, [r0, r1]
    28ec:	e5901000 	ldr	r1, [r0]
    28f0:	e5812000 	str	r2, [r1]
    28f4:	e3a01000 	mov	r1, #0
    28f8:	e51e20a4 	ldr	r2, [lr, #-164]	; 0xa4
    28fc:	e24bea02 	sub	lr, fp, #8192	; 0x2000
    2900:	e5821000 	str	r1, [r2]
    2904:	e3a01000 	mov	r1, #0
    2908:	e51e20a8 	ldr	r2, [lr, #-168]	; 0xa8
    290c:	e5821000 	str	r1, [r2]
    2910:	e5901000 	ldr	r1, [r0]
    2914:	e5910000 	ldr	r0, [r1]
    2918:	e24dd010 	sub	sp, sp, #16
    291c:	e3a02000 	mov	r2, #0
    2920:	e3a03001 	mov	r3, #1
    2924:	e58d2000 	str	r2, [sp]
    2928:	e3a0200c 	mov	r2, #12
    292c:	e58d1004 	str	r1, [sp, #4]
    2930:	e58d0008 	str	r0, [sp, #8]
    2934:	e3a000f0 	mov	r0, #240	; 0xf0
    2938:	ebfff9a0 	bl	fc0 <Java_com_geohot_towelroot_TowelRoot_rootTheShit-0x1b0>
    293c:	e30b1e56 	movw	r1, #48726	; 0xbe56
    2940:	e3a0c000 	mov	ip, #0
    2944:	e3471fa7 	movt	r1, #32679	; 0x7fa7
    2948:	e1a0e001 	mov	lr, r1
    294c:	e3081e01 	movw	r1, #36353	; 0x8e01
    2950:	e3471f2b 	movt	r1, #32555	; 0x7f2b
    2954:	e1a02001 	mov	r2, r1
    2958:	e3091e8e 	movw	r1, #40590	; 0x9e8e
    295c:	e3491438 	movt	r1, #37944	; 0x9438
    2960:	e1a03001 	mov	r3, r1
    2964:	e28dd010 	add	sp, sp, #16
    2968:	e5961004 	ldr	r1, [r6, #4]
    296c:	e5810000 	str	r0, [r1]
    2970:	ea0003c2 	b	3880 <Java_com_geohot_towelroot_TowelRoot_rootTheShit+0x2710>
    2974:	e300076e 	movw	r0, #1902	; 0x76e
    2978:	e3400bf6 	movt	r0, #3062	; 0xbf6
    297c:	e1510000 	cmp	r1, r0
    2980:	1a000bd8 	bne	58e8 <Java_com_geohot_towelroot_TowelRoot_rootTheShit+0x4778>
    2984:	e51b0024 	ldr	r0, [fp, #-36]	; 0x24
    2988:	e5960008 	ldr	r0, [r6, #8]
    298c:	e3040ad9 	movw	r0, #19161	; 0x4ad9
    2990:	e347073d 	movt	r0, #30525	; 0x773d
    2994:	ea000bc4 	b	58ac <Java_com_geohot_towelroot_TowelRoot_rootTheShit+0x473c>
    2998:	e30210c9 	movw	r1, #8393	; 0x20c9
    299c:	e34e1430 	movt	r1, #58416	; 0xe430
    29a0:	e1500001 	cmp	r0, r1
    29a4:	ca000023 	bgt	2a38 <Java_com_geohot_towelroot_TowelRoot_rootTheShit+0x18c8>
    29a8:	e30f1465 	movw	r1, #62565	; 0xf465
    29ac:	e3a0c000 	mov	ip, #0
    29b0:	e34e11c7 	movt	r1, #57799	; 0xe1c7
    29b4:	e1500001 	cmp	r0, r1
    29b8:	e3091e8e 	movw	r1, #40590	; 0x9e8e
    29bc:	e3491438 	movt	r1, #37944	; 0x9438
    29c0:	e1a03001 	mov	r3, r1
    29c4:	e3081e01 	movw	r1, #36353	; 0x8e01
    29c8:	e3471f2b 	movt	r1, #32555	; 0x7f2b
    29cc:	e1a02001 	mov	r2, r1
    29d0:	e30b1e56 	movw	r1, #48726	; 0xbe56
    29d4:	e3471fa7 	movt	r1, #32679	; 0x7fa7
    29d8:	e1a0e001 	mov	lr, r1
    29dc:	1afffd98 	bne	2044 <Java_com_geohot_towelroot_TowelRoot_rootTheShit+0xed4>
    29e0:	e596001c 	ldr	r0, [r6, #28]
    29e4:	e24bea02 	sub	lr, fp, #8192	; 0x2000
    29e8:	e51e10ac 	ldr	r1, [lr, #-172]	; 0xac
    29ec:	e24bea01 	sub	lr, fp, #4096	; 0x1000
    29f0:	e5902000 	ldr	r2, [r0]
    29f4:	e59f01cc 	ldr	r0, [pc, #460]	; 2bc8 <Java_com_geohot_towelroot_TowelRoot_rootTheShit+0x1a58>
    29f8:	e0801001 	add	r1, r0, r1
    29fc:	e24e0028 	sub	r0, lr, #40	; 0x28
    2a00:	ebfff97a 	bl	ff0 <Java_com_geohot_towelroot_TowelRoot_rootTheShit-0x180>
    2a04:	e24bea02 	sub	lr, fp, #8192	; 0x2000
    2a08:	e59f01bc 	ldr	r0, [pc, #444]	; 2bcc <Java_com_geohot_towelroot_TowelRoot_rootTheShit+0x1a5c>
    2a0c:	e51e10ac 	ldr	r1, [lr, #-172]	; 0xac
    2a10:	e24bea01 	sub	lr, fp, #4096	; 0x1000
    2a14:	e0801001 	add	r1, r0, r1
    2a18:	e24e0028 	sub	r0, lr, #40	; 0x28
    2a1c:	ebfff976 	bl	ffc <Java_com_geohot_towelroot_TowelRoot_rootTheShit-0x174>
    2a20:	e24bea02 	sub	lr, fp, #8192	; 0x2000
    2a24:	e305144c 	movw	r1, #21580	; 0x544c
    2a28:	e50b0028 	str	r0, [fp, #-40]	; 0x28
    2a2c:	e3401801 	movt	r1, #2049	; 0x801
    2a30:	e50e0170 	str	r0, [lr, #-368]	; 0x170
    2a34:	ea000039 	b	2b20 <Java_com_geohot_towelroot_TowelRoot_rootTheShit+0x19b0>
    2a38:	e30519ed 	movw	r1, #23021	; 0x59ed
    2a3c:	e34e194c 	movt	r1, #59724	; 0xe94c
    2a40:	e1500001 	cmp	r0, r1
    2a44:	ca00008b 	bgt	2c78 <Java_com_geohot_towelroot_TowelRoot_rootTheShit+0x1b08>
    2a48:	e30210ca 	movw	r1, #8394	; 0x20ca
    2a4c:	e3a0c000 	mov	ip, #0
    2a50:	e34e1430 	movt	r1, #58416	; 0xe430
    2a54:	e1500001 	cmp	r0, r1
    2a58:	e3091e8e 	movw	r1, #40590	; 0x9e8e
    2a5c:	e3491438 	movt	r1, #37944	; 0x9438
    2a60:	e1a03001 	mov	r3, r1
    2a64:	e3081e01 	movw	r1, #36353	; 0x8e01
    2a68:	e3471f2b 	movt	r1, #32555	; 0x7f2b
    2a6c:	e1a02001 	mov	r2, r1
    2a70:	e30b1e56 	movw	r1, #48726	; 0xbe56
    2a74:	e3471fa7 	movt	r1, #32679	; 0x7fa7
    2a78:	e1a0e001 	mov	lr, r1
    2a7c:	1afffd70 	bne	2044 <Java_com_geohot_towelroot_TowelRoot_rootTheShit+0xed4>
    2a80:	e24bea02 	sub	lr, fp, #8192	; 0x2000
    2a84:	e59f0138 	ldr	r0, [pc, #312]	; 2bc4 <Java_com_geohot_towelroot_TowelRoot_rootTheShit+0x1a54>
    2a88:	e51e10b8 	ldr	r1, [lr, #-184]	; 0xb8
    2a8c:	e24bea02 	sub	lr, fp, #8192	; 0x2000
    2a90:	e7900001 	ldr	r0, [r0, r1]
    2a94:	e51e10b8 	ldr	r1, [lr, #-184]	; 0xb8
    2a98:	e24bea01 	sub	lr, fp, #4096	; 0x1000
    2a9c:	e5902000 	ldr	r2, [r0]
    2aa0:	e59f0120 	ldr	r0, [pc, #288]	; 2bc8 <Java_com_geohot_towelroot_TowelRoot_rootTheShit+0x1a58>
    2aa4:	e0801001 	add	r1, r0, r1
    2aa8:	e24e0028 	sub	r0, lr, #40	; 0x28
    2aac:	ebfff94f 	bl	ff0 <Java_com_geohot_towelroot_TowelRoot_rootTheShit-0x180>
    2ab0:	e24bea02 	sub	lr, fp, #8192	; 0x2000
    2ab4:	e59f0110 	ldr	r0, [pc, #272]	; 2bcc <Java_com_geohot_towelroot_TowelRoot_rootTheShit+0x1a5c>
    2ab8:	e51e10b8 	ldr	r1, [lr, #-184]	; 0xb8
    2abc:	e24bea01 	sub	lr, fp, #4096	; 0x1000
    2ac0:	e0801001 	add	r1, r0, r1
    2ac4:	e24e0028 	sub	r0, lr, #40	; 0x28
    2ac8:	ebfff94b 	bl	ffc <Java_com_geohot_towelroot_TowelRoot_rootTheShit-0x174>
    2acc:	e24bea02 	sub	lr, fp, #8192	; 0x2000
    2ad0:	e305144c 	movw	r1, #21580	; 0x544c
    2ad4:	e50b0028 	str	r0, [fp, #-40]	; 0x28
    2ad8:	e3401801 	movt	r1, #2049	; 0x801
    2adc:	e50e0170 	str	r0, [lr, #-368]	; 0x170
    2ae0:	ea00009f 	b	2d64 <Java_com_geohot_towelroot_TowelRoot_rootTheShit+0x1bf4>
    2ae4:	e300176e 	movw	r1, #1902	; 0x76e
    2ae8:	e50b0024 	str	r0, [fp, #-36]	; 0x24
    2aec:	e3401bf6 	movt	r1, #3062	; 0xbf6
    2af0:	ea00000a 	b	2b20 <Java_com_geohot_towelroot_TowelRoot_rootTheShit+0x19b0>
    2af4:	00029268 	andeq	r9, r2, r8, ror #4
    2af8:	ffffffa0 			; <UNDEFINED> instruction: 0xffffffa0
    2afc:	fffe1bcb 			; <UNDEFINED> instruction: 0xfffe1bcb
    2b00:	0002923c 	andeq	r9, r2, ip, lsr r2
    2b04:	e3052fd9 	movw	r2, #24537	; 0x5fd9
    2b08:	e3e00000 	mvn	r0, #0
    2b0c:	e3452c66 	movt	r2, #23654	; 0x5c66
    2b10:	e1510002 	cmp	r1, r2
    2b14:	e303189c 	movw	r1, #14492	; 0x389c
    2b18:	e34a15fa 	movt	r1, #42490	; 0xa5fa
    2b1c:	1a000b72 	bne	58ec <Java_com_geohot_towelroot_TowelRoot_rootTheShit+0x477c>
    2b20:	e305244b 	movw	r2, #21579	; 0x544b
    2b24:	e3402801 	movt	r2, #2049	; 0x801
    2b28:	e1510002 	cmp	r1, r2
    2b2c:	ca00000d 	bgt	2b68 <Java_com_geohot_towelroot_TowelRoot_rootTheShit+0x19f8>
    2b30:	e30b2936 	movw	r2, #47414	; 0xb936
    2b34:	e303389c 	movw	r3, #14492	; 0x389c
    2b38:	e34227b0 	movt	r2, #10160	; 0x27b0
    2b3c:	e34a35fa 	movt	r3, #42490	; 0xa5fa
    2b40:	e1510003 	cmp	r1, r3
    2b44:	e1a01002 	mov	r1, r2
    2b48:	0afffff4 	beq	2b20 <Java_com_geohot_towelroot_TowelRoot_rootTheShit+0x19b0>
    2b4c:	ea000b66 	b	58ec <Java_com_geohot_towelroot_TowelRoot_rootTheShit+0x477c>
    2b50:	fffe1c7f 			; <UNDEFINED> instruction: 0xfffe1c7f
    2b54:	ffffff90 			; <UNDEFINED> instruction: 0xffffff90
    2b58:	fffe1ce3 			; <UNDEFINED> instruction: 0xfffe1ce3
    2b5c:	ffffff9c 			; <UNDEFINED> instruction: 0xffffff9c
    2b60:	ffffffa4 			; <UNDEFINED> instruction: 0xffffffa4
    2b64:	ffffffa8 			; <UNDEFINED> instruction: 0xffffffa8
    2b68:	e3052fd8 	movw	r2, #24536	; 0x5fd8
    2b6c:	e3452c66 	movt	r2, #23654	; 0x5c66
    2b70:	e1510002 	cmp	r1, r2
    2b74:	caffffe2 	bgt	2b04 <Java_com_geohot_towelroot_TowelRoot_rootTheShit+0x1994>
    2b78:	e305208d 	movw	r2, #20621	; 0x508d
    2b7c:	e3442d5c 	movt	r2, #19804	; 0x4d5c
    2b80:	e1510002 	cmp	r1, r2
    2b84:	ca000012 	bgt	2bd4 <Java_com_geohot_towelroot_TowelRoot_rootTheShit+0x1a64>
    2b88:	e305244c 	movw	r2, #21580	; 0x544c
    2b8c:	e3402801 	movt	r2, #2049	; 0x801
    2b90:	e1510002 	cmp	r1, r2
    2b94:	0a000026 	beq	2c34 <Java_com_geohot_towelroot_TowelRoot_rootTheShit+0x1ac4>
    2b98:	e30b2936 	movw	r2, #47414	; 0xb936
    2b9c:	e34227b0 	movt	r2, #10160	; 0x27b0
    2ba0:	e1510002 	cmp	r1, r2
    2ba4:	0affffce 	beq	2ae4 <Java_com_geohot_towelroot_TowelRoot_rootTheShit+0x1974>
    2ba8:	ea0000b6 	b	2e88 <Java_com_geohot_towelroot_TowelRoot_rootTheShit+0x1d18>
    2bac:	000291e4 	andeq	r9, r2, r4, ror #3
    2bb0:	ffffffac 			; <UNDEFINED> instruction: 0xffffffac
    2bb4:	ffffffb0 			; <UNDEFINED> instruction: 0xffffffb0
    2bb8:	000291ac 	andeq	r9, r2, ip, lsr #3
    2bbc:	ffffffb4 			; <UNDEFINED> instruction: 0xffffffb4
    2bc0:	00029194 	muleq	r2, r4, r1
    2bc4:	ffffffb8 			; <UNDEFINED> instruction: 0xffffffb8
    2bc8:	fffe1cc6 			; <UNDEFINED> instruction: 0xfffe1cc6
    2bcc:	fffe1ce0 			; <UNDEFINED> instruction: 0xfffe1ce0
    2bd0:	ffffffbc 			; <UNDEFINED> instruction: 0xffffffbc
    2bd4:	e305008e 	movw	r0, #20622	; 0x508e
    2bd8:	e3440d5c 	movt	r0, #19804	; 0x4d5c
    2bdc:	e1510000 	cmp	r1, r0
    2be0:	1a000b41 	bne	58ec <Java_com_geohot_towelroot_TowelRoot_rootTheShit+0x477c>
    2be4:	e24bea02 	sub	lr, fp, #8192	; 0x2000
    2be8:	e3a01001 	mov	r1, #1
    2bec:	e24e0028 	sub	r0, lr, #40	; 0x28
    2bf0:	e24bea02 	sub	lr, fp, #8192	; 0x2000
    2bf4:	e3a02a01 	mov	r2, #4096	; 0x1000
    2bf8:	e51e3170 	ldr	r3, [lr, #-368]	; 0x170
    2bfc:	ebfff901 	bl	1008 <Java_com_geohot_towelroot_TowelRoot_rootTheShit-0x168>
    2c00:	e24bea02 	sub	lr, fp, #8192	; 0x2000
    2c04:	e24e0028 	sub	r0, lr, #40	; 0x28
    2c08:	e24bea02 	sub	lr, fp, #8192	; 0x2000
    2c0c:	e51e10b4 	ldr	r1, [lr, #-180]	; 0xb4
    2c10:	ebfff8ff 	bl	1014 <Java_com_geohot_towelroot_TowelRoot_rootTheShit-0x15c>
    2c14:	e2800019 	add	r0, r0, #25
    2c18:	ebfff900 	bl	1020 <Java_com_geohot_towelroot_TowelRoot_rootTheShit-0x150>
    2c1c:	e303189c 	movw	r1, #14492	; 0x389c
    2c20:	e34a15fa 	movt	r1, #42490	; 0xa5fa
    2c24:	eaffffbd 	b	2b20 <Java_com_geohot_towelroot_TowelRoot_rootTheShit+0x19b0>
    2c28:	0002915c 	andeq	r9, r2, ip, asr r1
    2c2c:	ffffffc0 			; <UNDEFINED> instruction: 0xffffffc0
    2c30:	00029144 	andeq	r9, r2, r4, asr #2
    2c34:	e51b1028 	ldr	r1, [fp, #-40]	; 0x28
    2c38:	e3510000 	cmp	r1, #0
    2c3c:	e305108e 	movw	r1, #20622	; 0x508e
    2c40:	e3441d5c 	movt	r1, #19804	; 0x4d5c
    2c44:	03051fd9 	movweq	r1, #24537	; 0x5fd9
    2c48:	03451c66 	movteq	r1, #23654	; 0x5c66
    2c4c:	eaffffb3 	b	2b20 <Java_com_geohot_towelroot_TowelRoot_rootTheShit+0x19b0>
    2c50:	00029118 	andeq	r9, r2, r8, lsl r1
    2c54:	00029108 	andeq	r9, r2, r8, lsl #2
    2c58:	fffe1c60 			; <UNDEFINED> instruction: 0xfffe1c60
    2c5c:	000290f0 	strdeq	r9, [r2], -r0
    2c60:	000290dc 	ldrdeq	r9, [r2], -ip
    2c64:	000290cc 	andeq	r9, r2, ip, asr #1
    2c68:	000290b8 	strheq	r9, [r2], -r8
    2c6c:	000290a4 	andeq	r9, r2, r4, lsr #1
    2c70:	ffffffc4 			; <UNDEFINED> instruction: 0xffffffc4
    2c74:	00029084 	andeq	r9, r2, r4, lsl #1
    2c78:	e3021e10 	movw	r1, #11792	; 0x2e10
    2c7c:	e34e19b0 	movt	r1, #59824	; 0xe9b0
    2c80:	e1500001 	cmp	r0, r1
    2c84:	ca000096 	bgt	2ee4 <Java_com_geohot_towelroot_TowelRoot_rootTheShit+0x1d74>
    2c88:	e30519ee 	movw	r1, #23022	; 0x59ee
    2c8c:	e3a0c000 	mov	ip, #0
    2c90:	e34e194c 	movt	r1, #59724	; 0xe94c
    2c94:	e1500001 	cmp	r0, r1
    2c98:	e3091e8e 	movw	r1, #40590	; 0x9e8e
    2c9c:	e3491438 	movt	r1, #37944	; 0x9438
    2ca0:	e1a03001 	mov	r3, r1
    2ca4:	e3081e01 	movw	r1, #36353	; 0x8e01
    2ca8:	e3471f2b 	movt	r1, #32555	; 0x7f2b
    2cac:	e1a02001 	mov	r2, r1
    2cb0:	e30b1e56 	movw	r1, #48726	; 0xbe56
    2cb4:	e3471fa7 	movt	r1, #32679	; 0x7fa7
    2cb8:	e1a0e001 	mov	lr, r1
    2cbc:	1afffce0 	bne	2044 <Java_com_geohot_towelroot_TowelRoot_rootTheShit+0xed4>
    2cc0:	e24bea02 	sub	lr, fp, #8192	; 0x2000
    2cc4:	e51f01d0 	ldr	r0, [pc, #-464]	; 2afc <Java_com_geohot_towelroot_TowelRoot_rootTheShit+0x198c>
    2cc8:	e51e10c4 	ldr	r1, [lr, #-196]	; 0xc4
    2ccc:	e24bea02 	sub	lr, fp, #8192	; 0x2000
    2cd0:	e51e20c8 	ldr	r2, [lr, #-200]	; 0xc8
    2cd4:	e0801001 	add	r1, r0, r1
    2cd8:	e3a00004 	mov	r0, #4
    2cdc:	ebfff893 	bl	f30 <Java_com_geohot_towelroot_TowelRoot_rootTheShit-0x240>
    2ce0:	e24bea02 	sub	lr, fp, #8192	; 0x2000
    2ce4:	e51f0190 	ldr	r0, [pc, #-400]	; 2b5c <Java_com_geohot_towelroot_TowelRoot_rootTheShit+0x19ec>
    2ce8:	e307c51c 	movw	ip, #29980	; 0x751c
    2cec:	e51e10c4 	ldr	r1, [lr, #-196]	; 0xc4
    2cf0:	e24bea02 	sub	lr, fp, #8192	; 0x2000
    2cf4:	e346c4a8 	movt	ip, #25768	; 0x64a8
    2cf8:	e7900001 	ldr	r0, [r0, r1]
    2cfc:	e5900000 	ldr	r0, [r0]
    2d00:	e2603000 	rsb	r3, r0, #0
    2d04:	e2801008 	add	r1, r0, #8
    2d08:	e2802020 	add	r2, r0, #32
    2d0c:	e2633028 	rsb	r3, r3, #40	; 0x28
    2d10:	e50e1188 	str	r1, [lr, #-392]	; 0x188
    2d14:	e1a01000 	mov	r1, r0
    2d18:	ea0000ae 	b	2fd8 <Java_com_geohot_towelroot_TowelRoot_rootTheShit+0x1e68>
    2d1c:	00029070 	andeq	r9, r2, r0, ror r0
    2d20:	e300176e 	movw	r1, #1902	; 0x76e
    2d24:	e50b0024 	str	r0, [fp, #-36]	; 0x24
    2d28:	e3401bf6 	movt	r1, #3062	; 0xbf6
    2d2c:	ea00000c 	b	2d64 <Java_com_geohot_towelroot_TowelRoot_rootTheShit+0x1bf4>
    2d30:	0002905c 	andeq	r9, r2, ip, asr r0
    2d34:	0002903c 	andeq	r9, r2, ip, lsr r0
    2d38:	fffe1c90 			; <UNDEFINED> instruction: 0xfffe1c90
    2d3c:	ffffffc8 			; <UNDEFINED> instruction: 0xffffffc8
    2d40:	00029010 	andeq	r9, r2, r0, lsl r0
    2d44:	fffe1cbf 			; <UNDEFINED> instruction: 0xfffe1cbf
    2d48:	e3052fd9 	movw	r2, #24537	; 0x5fd9
    2d4c:	e3e00000 	mvn	r0, #0
    2d50:	e3452c66 	movt	r2, #23654	; 0x5c66
    2d54:	e1510002 	cmp	r1, r2
    2d58:	e303189c 	movw	r1, #14492	; 0x389c
    2d5c:	e34a15fa 	movt	r1, #42490	; 0xa5fa
    2d60:	1a000ae3 	bne	58f4 <Java_com_geohot_towelroot_TowelRoot_rootTheShit+0x4784>
    2d64:	e305244b 	movw	r2, #21579	; 0x544b
    2d68:	e3402801 	movt	r2, #2049	; 0x801
    2d6c:	e1510002 	cmp	r1, r2
    2d70:	ca00000b 	bgt	2da4 <Java_com_geohot_towelroot_TowelRoot_rootTheShit+0x1c34>
    2d74:	e30b2936 	movw	r2, #47414	; 0xb936
    2d78:	e303389c 	movw	r3, #14492	; 0x389c
    2d7c:	e34227b0 	movt	r2, #10160	; 0x27b0
    2d80:	e34a35fa 	movt	r3, #42490	; 0xa5fa
    2d84:	e1510003 	cmp	r1, r3
    2d88:	e1a01002 	mov	r1, r2
    2d8c:	0afffff4 	beq	2d64 <Java_com_geohot_towelroot_TowelRoot_rootTheShit+0x1bf4>
    2d90:	ea000ad7 	b	58f4 <Java_com_geohot_towelroot_TowelRoot_rootTheShit+0x4784>
    2d94:	ffffffcc 			; <UNDEFINED> instruction: 0xffffffcc
    2d98:	00028fe0 	andeq	r8, r2, r0, ror #31
    2d9c:	00028fcc 	andeq	r8, r2, ip, asr #31
    2da0:	00028fb4 			; <UNDEFINED> instruction: 0x00028fb4
    2da4:	e3052fd8 	movw	r2, #24536	; 0x5fd8
    2da8:	e3452c66 	movt	r2, #23654	; 0x5c66
    2dac:	e1510002 	cmp	r1, r2
    2db0:	caffffe4 	bgt	2d48 <Java_com_geohot_towelroot_TowelRoot_rootTheShit+0x1bd8>
    2db4:	e305208d 	movw	r2, #20621	; 0x508d
    2db8:	e3442d5c 	movt	r2, #19804	; 0x4d5c
    2dbc:	e1510002 	cmp	r1, r2
    2dc0:	ca00000e 	bgt	2e00 <Java_com_geohot_towelroot_TowelRoot_rootTheShit+0x1c90>
    2dc4:	e305244c 	movw	r2, #21580	; 0x544c
    2dc8:	e3402801 	movt	r2, #2049	; 0x801
    2dcc:	e1510002 	cmp	r1, r2
    2dd0:	0a000021 	beq	2e5c <Java_com_geohot_towelroot_TowelRoot_rootTheShit+0x1cec>
    2dd4:	e30b2936 	movw	r2, #47414	; 0xb936
    2dd8:	e34227b0 	movt	r2, #10160	; 0x27b0
    2ddc:	e1510002 	cmp	r1, r2
    2de0:	0affffce 	beq	2d20 <Java_com_geohot_towelroot_TowelRoot_rootTheShit+0x1bb0>
    2de4:	ea00008b 	b	3018 <Java_com_geohot_towelroot_TowelRoot_rootTheShit+0x1ea8>
    2de8:	00028fa0 	andeq	r8, r2, r0, lsr #31
    2dec:	ffffffd0 			; <UNDEFINED> instruction: 0xffffffd0
    2df0:	00028f8c 	andeq	r8, r2, ip, lsl #31
    2df4:	00028f78 	andeq	r8, r2, r8, ror pc
    2df8:	00028f60 	andeq	r8, r2, r0, ror #30
    2dfc:	00028f4c 	andeq	r8, r2, ip, asr #30
    2e00:	e305008e 	movw	r0, #20622	; 0x508e
    2e04:	e3440d5c 	movt	r0, #19804	; 0x4d5c
    2e08:	e1510000 	cmp	r1, r0
    2e0c:	1a000ab8 	bne	58f4 <Java_com_geohot_towelroot_TowelRoot_rootTheShit+0x4784>
    2e10:	e24bea02 	sub	lr, fp, #8192	; 0x2000
    2e14:	e3a01001 	mov	r1, #1
    2e18:	e24e0028 	sub	r0, lr, #40	; 0x28
    2e1c:	e24bea02 	sub	lr, fp, #8192	; 0x2000
    2e20:	e3a02a01 	mov	r2, #4096	; 0x1000
    2e24:	e51e3170 	ldr	r3, [lr, #-368]	; 0x170
    2e28:	ebfff876 	bl	1008 <Java_com_geohot_towelroot_TowelRoot_rootTheShit-0x168>
    2e2c:	e24bea02 	sub	lr, fp, #8192	; 0x2000
    2e30:	e24e0028 	sub	r0, lr, #40	; 0x28
    2e34:	e24bea02 	sub	lr, fp, #8192	; 0x2000
    2e38:	e51e10c0 	ldr	r1, [lr, #-192]	; 0xc0
    2e3c:	ebfff874 	bl	1014 <Java_com_geohot_towelroot_TowelRoot_rootTheShit-0x15c>
    2e40:	e2800019 	add	r0, r0, #25
    2e44:	ebfff875 	bl	1020 <Java_com_geohot_towelroot_TowelRoot_rootTheShit-0x150>
    2e48:	e303189c 	movw	r1, #14492	; 0x389c
    2e4c:	e34a15fa 	movt	r1, #42490	; 0xa5fa
    2e50:	eaffffc3 	b	2d64 <Java_com_geohot_towelroot_TowelRoot_rootTheShit+0x1bf4>
    2e54:	00028f38 	andeq	r8, r2, r8, lsr pc
    2e58:	00028f18 	andeq	r8, r2, r8, lsl pc
    2e5c:	e51b1028 	ldr	r1, [fp, #-40]	; 0x28
    2e60:	e3510000 	cmp	r1, #0
    2e64:	e305108e 	movw	r1, #20622	; 0x508e
    2e68:	e3441d5c 	movt	r1, #19804	; 0x4d5c
    2e6c:	03051fd9 	movweq	r1, #24537	; 0x5fd9
    2e70:	03451c66 	movteq	r1, #23654	; 0x5c66
    2e74:	eaffffba 	b	2d64 <Java_com_geohot_towelroot_TowelRoot_rootTheShit+0x1bf4>
    2e78:	fffe1ca5 			; <UNDEFINED> instruction: 0xfffe1ca5
    2e7c:	00028f08 	andeq	r8, r2, r8, lsl #30
    2e80:	00028ef0 	strdeq	r8, [r2], -r0
    2e84:	00028edc 	ldrdeq	r8, [r2], -ip
    2e88:	e300076e 	movw	r0, #1902	; 0x76e
    2e8c:	e3400bf6 	movt	r0, #3062	; 0xbf6
    2e90:	e1510000 	cmp	r1, r0
    2e94:	1a000a94 	bne	58ec <Java_com_geohot_towelroot_TowelRoot_rootTheShit+0x477c>
    2e98:	e51b0024 	ldr	r0, [fp, #-36]	; 0x24
    2e9c:	e24bea02 	sub	lr, fp, #8192	; 0x2000
    2ea0:	e5961024 	ldr	r1, [r6, #36]	; 0x24
    2ea4:	e5810000 	str	r0, [r1]
    2ea8:	e3a00001 	mov	r0, #1
    2eac:	e51e10b0 	ldr	r1, [lr, #-176]	; 0xb0
    2eb0:	e5810000 	str	r0, [r1]
    2eb4:	e3060de1 	movw	r0, #28129	; 0x6de1
    2eb8:	e341067d 	movt	r0, #5757	; 0x167d
    2ebc:	ea000a7a 	b	58ac <Java_com_geohot_towelroot_TowelRoot_rootTheShit+0x473c>
    2ec0:	00028ecc 	andeq	r8, r2, ip, asr #29
    2ec4:	00028eb8 			; <UNDEFINED> instruction: 0x00028eb8
    2ec8:	00028e9c 	muleq	r2, ip, lr
    2ecc:	00028e78 	andeq	r8, r2, r8, ror lr
    2ed0:	00028e68 	andeq	r8, r2, r8, ror #28
    2ed4:	00028e54 	andeq	r8, r2, r4, asr lr
    2ed8:	00028e40 	andeq	r8, r2, r0, asr #28
    2edc:	00028e2c 	andeq	r8, r2, ip, lsr #28
    2ee0:	00028e18 	andeq	r8, r2, r8, lsl lr
    2ee4:	e30615cc 	movw	r1, #26060	; 0x65cc
    2ee8:	e34e1baf 	movt	r1, #60335	; 0xebaf
    2eec:	e1500001 	cmp	r0, r1
    2ef0:	ca000056 	bgt	3050 <Java_com_geohot_towelroot_TowelRoot_rootTheShit+0x1ee0>
    2ef4:	e3021e11 	movw	r1, #11793	; 0x2e11
    2ef8:	e3a0c000 	mov	ip, #0
    2efc:	e34e19b0 	movt	r1, #59824	; 0xe9b0
    2f00:	e1500001 	cmp	r0, r1
    2f04:	e3091e8e 	movw	r1, #40590	; 0x9e8e
    2f08:	e3491438 	movt	r1, #37944	; 0x9438
    2f0c:	e1a03001 	mov	r3, r1
    2f10:	e3081e01 	movw	r1, #36353	; 0x8e01
    2f14:	e3471f2b 	movt	r1, #32555	; 0x7f2b
    2f18:	e1a02001 	mov	r2, r1
    2f1c:	e30b1e56 	movw	r1, #48726	; 0xbe56
    2f20:	e3471fa7 	movt	r1, #32679	; 0x7fa7
    2f24:	e1a0e001 	mov	lr, r1
    2f28:	1afffc45 	bne	2044 <Java_com_geohot_towelroot_TowelRoot_rootTheShit+0xed4>
    2f2c:	e3a0000a 	mov	r0, #10
    2f30:	e1a08009 	mov	r8, r9
    2f34:	e1a0900a 	mov	r9, sl
    2f38:	e1a0a003 	mov	sl, r3
    2f3c:	ebfff828 	bl	fe4 <Java_com_geohot_towelroot_TowelRoot_rootTheShit-0x18c>
    2f40:	e30b0e56 	movw	r0, #48726	; 0xbe56
    2f44:	e1a0300a 	mov	r3, sl
    2f48:	e3470fa7 	movt	r0, #32679	; 0x7fa7
    2f4c:	e1a0a009 	mov	sl, r9
    2f50:	e1a0e000 	mov	lr, r0
    2f54:	e3080e01 	movw	r0, #36353	; 0x8e01
    2f58:	e3470f2b 	movt	r0, #32555	; 0x7f2b
    2f5c:	e1a09008 	mov	r9, r8
    2f60:	e1a02000 	mov	r2, r0
    2f64:	e30504d5 	movw	r0, #21717	; 0x54d5
    2f68:	e3480e5b 	movt	r0, #36443	; 0x8e5b
    2f6c:	e3a0c000 	mov	ip, #0
    2f70:	e1a08000 	mov	r8, r0
    2f74:	e30707b3 	movw	r0, #30643	; 0x77b3
    2f78:	e3410aab 	movt	r0, #6827	; 0x1aab
    2f7c:	eafffc30 	b	2044 <Java_com_geohot_towelroot_TowelRoot_rootTheShit+0xed4>
    2f80:	00028e00 	andeq	r8, r2, r0, lsl #28
    2f84:	00028dec 	andeq	r8, r2, ip, ror #27
    2f88:	00028dd8 	ldrdeq	r8, [r2], -r8	; <UNPREDICTABLE>
    2f8c:	00028dc0 	andeq	r8, r2, r0, asr #27
    2f90:	00028da4 	andeq	r8, r2, r4, lsr #27
    2f94:	00028d94 	muleq	r2, r4, sp
    2f98:	00028d7c 	andeq	r8, r2, ip, ror sp
    2f9c:	e1a0c001 	mov	ip, r1
    2fa0:	e24c0004 	sub	r0, ip, #4
    2fa4:	e3a01081 	mov	r1, #129	; 0x81
    2fa8:	e24bea02 	sub	lr, fp, #8192	; 0x2000
    2fac:	e5801000 	str	r1, [r0]
    2fb0:	e3a00085 	mov	r0, #133	; 0x85
    2fb4:	e58c2000 	str	r2, [ip]
    2fb8:	e1a0100c 	mov	r1, ip
    2fbc:	e58c3008 	str	r3, [ip, #8]
    2fc0:	e58c001c 	str	r0, [ip, #28]
    2fc4:	e51e0188 	ldr	r0, [lr, #-392]	; 0x188
    2fc8:	e58cc024 	str	ip, [ip, #36]	; 0x24
    2fcc:	e58c002c 	str	r0, [ip, #44]	; 0x2c
    2fd0:	e305c18e 	movw	ip, #20878	; 0x518e
    2fd4:	e343c068 	movt	ip, #12392	; 0x3068
    2fd8:	e305018e 	movw	r0, #20878	; 0x518e
    2fdc:	e1a0e00c 	mov	lr, ip
    2fe0:	e3430068 	movt	r0, #12392	; 0x3068
    2fe4:	e15e0000 	cmp	lr, r0
    2fe8:	0a00003f 	beq	30ec <Java_com_geohot_towelroot_TowelRoot_rootTheShit+0x1f7c>
    2fec:	e304c86e 	movw	ip, #18542	; 0x486e
    2ff0:	e307051c 	movw	r0, #29980	; 0x751c
    2ff4:	e34ec360 	movt	ip, #58208	; 0xe360
    2ff8:	e34604a8 	movt	r0, #25768	; 0x64a8
    2ffc:	e15e0000 	cmp	lr, r0
    3000:	0afffff4 	beq	2fd8 <Java_com_geohot_towelroot_TowelRoot_rootTheShit+0x1e68>
    3004:	e304086e 	movw	r0, #18542	; 0x486e
    3008:	e34e0360 	movt	r0, #58208	; 0xe360
    300c:	e15e0000 	cmp	lr, r0
    3010:	0affffe1 	beq	2f9c <Java_com_geohot_towelroot_TowelRoot_rootTheShit+0x1e2c>
    3014:	ea000a35 	b	58f0 <Java_com_geohot_towelroot_TowelRoot_rootTheShit+0x4780>
    3018:	e300076e 	movw	r0, #1902	; 0x76e
    301c:	e3400bf6 	movt	r0, #3062	; 0xbf6
    3020:	e1510000 	cmp	r1, r0
    3024:	1a000a32 	bne	58f4 <Java_com_geohot_towelroot_TowelRoot_rootTheShit+0x4784>
    3028:	e51b0024 	ldr	r0, [fp, #-36]	; 0x24
    302c:	e24bea02 	sub	lr, fp, #8192	; 0x2000
    3030:	e5961008 	ldr	r1, [r6, #8]
    3034:	e5810000 	str	r0, [r1]
    3038:	e3a00001 	mov	r0, #1
    303c:	e51e10bc 	ldr	r1, [lr, #-188]	; 0xbc
    3040:	e5810000 	str	r0, [r1]
    3044:	e30d0537 	movw	r0, #54583	; 0xd537
    3048:	e3430ed1 	movt	r0, #16081	; 0x3ed1
    304c:	ea000a16 	b	58ac <Java_com_geohot_towelroot_TowelRoot_rootTheShit+0x473c>
    3050:	e30d14ad 	movw	r1, #54445	; 0xd4ad
    3054:	e34e1ec3 	movt	r1, #61123	; 0xeec3
    3058:	e1500001 	cmp	r0, r1
    305c:	ca00002f 	bgt	3120 <Java_com_geohot_towelroot_TowelRoot_rootTheShit+0x1fb0>
    3060:	e30615cd 	movw	r1, #26061	; 0x65cd
    3064:	e3a0c000 	mov	ip, #0
    3068:	e34e1baf 	movt	r1, #60335	; 0xebaf
    306c:	e1500001 	cmp	r0, r1
    3070:	e3091e8e 	movw	r1, #40590	; 0x9e8e
    3074:	e3491438 	movt	r1, #37944	; 0x9438
    3078:	e1a03001 	mov	r3, r1
    307c:	e3081e01 	movw	r1, #36353	; 0x8e01
    3080:	e3471f2b 	movt	r1, #32555	; 0x7f2b
    3084:	e1a02001 	mov	r2, r1
    3088:	e30b1e56 	movw	r1, #48726	; 0xbe56
    308c:	e3471fa7 	movt	r1, #32679	; 0x7fa7
    3090:	e1a0e001 	mov	lr, r1
    3094:	1afffbea 	bne	2044 <Java_com_geohot_towelroot_TowelRoot_rootTheShit+0xed4>
    3098:	e3a00004 	mov	r0, #4
    309c:	ebfff7e2 	bl	102c <Java_com_geohot_towelroot_TowelRoot_rootTheShit-0x144>
    30a0:	e24bea02 	sub	lr, fp, #8192	; 0x2000
    30a4:	e51e10d8 	ldr	r1, [lr, #-216]	; 0xd8
    30a8:	e5810000 	str	r0, [r1]
    30ac:	e3a01000 	mov	r1, #0
    30b0:	ebfff7e0 	bl	1038 <Java_com_geohot_towelroot_TowelRoot_rootTheShit-0x138>
    30b4:	e24bea02 	sub	lr, fp, #8192	; 0x2000
    30b8:	e51f056c 	ldr	r0, [pc, #-1388]	; 2b54 <Java_com_geohot_towelroot_TowelRoot_rootTheShit+0x19e4>
    30bc:	e307c51c 	movw	ip, #29980	; 0x751c
    30c0:	e51e10d4 	ldr	r1, [lr, #-212]	; 0xd4
    30c4:	e24bea02 	sub	lr, fp, #8192	; 0x2000
    30c8:	e346c4a8 	movt	ip, #25768	; 0x64a8
    30cc:	e7900001 	ldr	r0, [r0, r1]
    30d0:	e5900000 	ldr	r0, [r0]
    30d4:	e2801008 	add	r1, r0, #8
    30d8:	e2802028 	add	r2, r0, #40	; 0x28
    30dc:	e2803020 	add	r3, r0, #32
    30e0:	e50e1188 	str	r1, [lr, #-392]	; 0x188
    30e4:	e1a01000 	mov	r1, r0
    30e8:	ea000040 	b	31f0 <Java_com_geohot_towelroot_TowelRoot_rootTheShit+0x2080>
    30ec:	e24bea02 	sub	lr, fp, #8192	; 0x2000
    30f0:	e307c51c 	movw	ip, #29980	; 0x751c
    30f4:	e346c4a8 	movt	ip, #25768	; 0x64a8
    30f8:	e51e00cc 	ldr	r0, [lr, #-204]	; 0xcc
    30fc:	e24bea02 	sub	lr, fp, #8192	; 0x2000
    3100:	e5900000 	ldr	r0, [r0]
    3104:	e2603000 	rsb	r3, r0, #0
    3108:	e2801008 	add	r1, r0, #8
    310c:	e2632028 	rsb	r2, r3, #40	; 0x28
    3110:	e2633020 	rsb	r3, r3, #32
    3114:	e50e1188 	str	r1, [lr, #-392]	; 0x188
    3118:	e1a01000 	mov	r1, r0
    311c:	ea000052 	b	326c <Java_com_geohot_towelroot_TowelRoot_rootTheShit+0x20fc>
    3120:	e3061e60 	movw	r1, #28256	; 0x6e60
    3124:	e34f128a 	movt	r1, #62090	; 0xf28a
    3128:	e1500001 	cmp	r0, r1
    312c:	ca00005e 	bgt	32ac <Java_com_geohot_towelroot_TowelRoot_rootTheShit+0x213c>
    3130:	e30d14ae 	movw	r1, #54446	; 0xd4ae
    3134:	e3a0c000 	mov	ip, #0
    3138:	e34e1ec3 	movt	r1, #61123	; 0xeec3
    313c:	e1500001 	cmp	r0, r1
    3140:	e3091e8e 	movw	r1, #40590	; 0x9e8e
    3144:	e3491438 	movt	r1, #37944	; 0x9438
    3148:	e1a03001 	mov	r3, r1
    314c:	e3081e01 	movw	r1, #36353	; 0x8e01
    3150:	e3471f2b 	movt	r1, #32555	; 0x7f2b
    3154:	e1a02001 	mov	r2, r1
    3158:	e30b1e56 	movw	r1, #48726	; 0xbe56
    315c:	e3471fa7 	movt	r1, #32679	; 0x7fa7
    3160:	e1a0e001 	mov	lr, r1
    3164:	1afffbb6 	bne	2044 <Java_com_geohot_towelroot_TowelRoot_rootTheShit+0xed4>
    3168:	e3a0000a 	mov	r0, #10
    316c:	e1a08009 	mov	r8, r9
    3170:	e1a0900a 	mov	r9, sl
    3174:	e1a0a003 	mov	sl, r3
    3178:	ebfff76f 	bl	f3c <Java_com_geohot_towelroot_TowelRoot_rootTheShit-0x234>
    317c:	e30b0e56 	movw	r0, #48726	; 0xbe56
    3180:	e1a0300a 	mov	r3, sl
    3184:	e3470fa7 	movt	r0, #32679	; 0x7fa7
    3188:	e1a0a009 	mov	sl, r9
    318c:	e1a0e000 	mov	lr, r0
    3190:	e3080e01 	movw	r0, #36353	; 0x8e01
    3194:	e3470f2b 	movt	r0, #32555	; 0x7f2b
    3198:	e1a09008 	mov	r9, r8
    319c:	e1a02000 	mov	r2, r0
    31a0:	e30504d5 	movw	r0, #21717	; 0x54d5
    31a4:	e3480e5b 	movt	r0, #36443	; 0x8e5b
    31a8:	e3a0c000 	mov	ip, #0
    31ac:	e1a08000 	mov	r8, r0
    31b0:	ea000646 	b	4ad0 <Java_com_geohot_towelroot_TowelRoot_rootTheShit+0x3960>
    31b4:	e1a0c001 	mov	ip, r1
    31b8:	e24c0004 	sub	r0, ip, #4
    31bc:	e3a01081 	mov	r1, #129	; 0x81
    31c0:	e24bea02 	sub	lr, fp, #8192	; 0x2000
    31c4:	e5801000 	str	r1, [r0]
    31c8:	e3a00085 	mov	r0, #133	; 0x85
    31cc:	e58c3000 	str	r3, [ip]
    31d0:	e1a0100c 	mov	r1, ip
    31d4:	e58c2008 	str	r2, [ip, #8]
    31d8:	e58c001c 	str	r0, [ip, #28]
    31dc:	e51e0188 	ldr	r0, [lr, #-392]	; 0x188
    31e0:	e58cc024 	str	ip, [ip, #36]	; 0x24
    31e4:	e58c002c 	str	r0, [ip, #44]	; 0x2c
    31e8:	e305c18e 	movw	ip, #20878	; 0x518e
    31ec:	e343c068 	movt	ip, #12392	; 0x3068
    31f0:	e305018e 	movw	r0, #20878	; 0x518e
    31f4:	e1a0e00c 	mov	lr, ip
    31f8:	e3430068 	movt	r0, #12392	; 0x3068
    31fc:	e15e0000 	cmp	lr, r0
    3200:	0a000059 	beq	336c <Java_com_geohot_towelroot_TowelRoot_rootTheShit+0x21fc>
    3204:	e304c86e 	movw	ip, #18542	; 0x486e
    3208:	e307051c 	movw	r0, #29980	; 0x751c
    320c:	e34ec360 	movt	ip, #58208	; 0xe360
    3210:	e34604a8 	movt	r0, #25768	; 0x64a8
    3214:	e15e0000 	cmp	lr, r0
    3218:	0afffff4 	beq	31f0 <Java_com_geohot_towelroot_TowelRoot_rootTheShit+0x2080>
    321c:	e304086e 	movw	r0, #18542	; 0x486e
    3220:	e34e0360 	movt	r0, #58208	; 0xe360
    3224:	e15e0000 	cmp	lr, r0
    3228:	0affffe1 	beq	31b4 <Java_com_geohot_towelroot_TowelRoot_rootTheShit+0x2044>
    322c:	ea0009b1 	b	58f8 <Java_com_geohot_towelroot_TowelRoot_rootTheShit+0x4788>
    3230:	e1a0c001 	mov	ip, r1
    3234:	e24c0004 	sub	r0, ip, #4
    3238:	e3a01081 	mov	r1, #129	; 0x81
    323c:	e24bea02 	sub	lr, fp, #8192	; 0x2000
    3240:	e5801000 	str	r1, [r0]
    3244:	e3a00085 	mov	r0, #133	; 0x85
    3248:	e58c3000 	str	r3, [ip]
    324c:	e1a0100c 	mov	r1, ip
    3250:	e58c2008 	str	r2, [ip, #8]
    3254:	e58c001c 	str	r0, [ip, #28]
    3258:	e51e0188 	ldr	r0, [lr, #-392]	; 0x188
    325c:	e58cc024 	str	ip, [ip, #36]	; 0x24
    3260:	e58c002c 	str	r0, [ip, #44]	; 0x2c
    3264:	e305c18e 	movw	ip, #20878	; 0x518e
    3268:	e343c068 	movt	ip, #12392	; 0x3068
    326c:	e305018e 	movw	r0, #20878	; 0x518e
    3270:	e1a0e00c 	mov	lr, ip
    3274:	e3430068 	movt	r0, #12392	; 0x3068
    3278:	e15e0000 	cmp	lr, r0
    327c:	0a00007b 	beq	3470 <Java_com_geohot_towelroot_TowelRoot_rootTheShit+0x2300>
    3280:	e304c86e 	movw	ip, #18542	; 0x486e
    3284:	e307051c 	movw	r0, #29980	; 0x751c
    3288:	e34ec360 	movt	ip, #58208	; 0xe360
    328c:	e34604a8 	movt	r0, #25768	; 0x64a8
    3290:	e15e0000 	cmp	lr, r0
    3294:	0afffff4 	beq	326c <Java_com_geohot_towelroot_TowelRoot_rootTheShit+0x20fc>
    3298:	e304086e 	movw	r0, #18542	; 0x486e
    329c:	e34e0360 	movt	r0, #58208	; 0xe360
    32a0:	e15e0000 	cmp	lr, r0
    32a4:	0affffe1 	beq	3230 <Java_com_geohot_towelroot_TowelRoot_rootTheShit+0x20c0>
    32a8:	ea000993 	b	58fc <Java_com_geohot_towelroot_TowelRoot_rootTheShit+0x478c>
    32ac:	e30f1cb3 	movw	r1, #64691	; 0xfcb3
    32b0:	e34f1382 	movt	r1, #62338	; 0xf382
    32b4:	e1500001 	cmp	r0, r1
    32b8:	ca00007f 	bgt	34bc <Java_com_geohot_towelroot_TowelRoot_rootTheShit+0x234c>
    32bc:	e3061e61 	movw	r1, #28257	; 0x6e61
    32c0:	e3a0c000 	mov	ip, #0
    32c4:	e34f128a 	movt	r1, #62090	; 0xf28a
    32c8:	e1500001 	cmp	r0, r1
    32cc:	e3091e8e 	movw	r1, #40590	; 0x9e8e
    32d0:	e3491438 	movt	r1, #37944	; 0x9438
    32d4:	e1a03001 	mov	r3, r1
    32d8:	e3081e01 	movw	r1, #36353	; 0x8e01
    32dc:	e3471f2b 	movt	r1, #32555	; 0x7f2b
    32e0:	e1a02001 	mov	r2, r1
    32e4:	e30b1e56 	movw	r1, #48726	; 0xbe56
    32e8:	e3471fa7 	movt	r1, #32679	; 0x7fa7
    32ec:	e1a0e001 	mov	lr, r1
    32f0:	1afffb53 	bne	2044 <Java_com_geohot_towelroot_TowelRoot_rootTheShit+0xed4>
    32f4:	e24bea02 	sub	lr, fp, #8192	; 0x2000
    32f8:	e51f0804 	ldr	r0, [pc, #-2052]	; 2afc <Java_com_geohot_towelroot_TowelRoot_rootTheShit+0x198c>
    32fc:	e51e10e8 	ldr	r1, [lr, #-232]	; 0xe8
    3300:	e24bea02 	sub	lr, fp, #8192	; 0x2000
    3304:	e51e20ec 	ldr	r2, [lr, #-236]	; 0xec
    3308:	e0801001 	add	r1, r0, r1
    330c:	e3a00004 	mov	r0, #4
    3310:	ebfff706 	bl	f30 <Java_com_geohot_towelroot_TowelRoot_rootTheShit-0x240>
    3314:	e24bea02 	sub	lr, fp, #8192	; 0x2000
    3318:	e5960038 	ldr	r0, [r6, #56]	; 0x38
    331c:	e3a02a01 	mov	r2, #4096	; 0x1000
    3320:	e51e00f0 	ldr	r0, [lr, #-240]	; 0xf0
    3324:	e5900000 	ldr	r0, [r0]
    3328:	e5961038 	ldr	r1, [r6, #56]	; 0x38
    332c:	ebfff744 	bl	1044 <Java_com_geohot_towelroot_TowelRoot_rootTheShit-0x12c>
    3330:	e30b1e56 	movw	r1, #48726	; 0xbe56
    3334:	e3a0c000 	mov	ip, #0
    3338:	e3471fa7 	movt	r1, #32679	; 0x7fa7
    333c:	e1a0e001 	mov	lr, r1
    3340:	e3081e01 	movw	r1, #36353	; 0x8e01
    3344:	e3471f2b 	movt	r1, #32555	; 0x7f2b
    3348:	e1a02001 	mov	r2, r1
    334c:	e3091e8e 	movw	r1, #40590	; 0x9e8e
    3350:	e3491438 	movt	r1, #37944	; 0x9438
    3354:	e1a03001 	mov	r3, r1
    3358:	e5961004 	ldr	r1, [r6, #4]
    335c:	e5810000 	str	r0, [r1]
    3360:	e30903c2 	movw	r0, #37826	; 0x93c2
    3364:	e3460095 	movt	r0, #24725	; 0x6095
    3368:	eafffb35 	b	2044 <Java_com_geohot_towelroot_TowelRoot_rootTheShit+0xed4>
    336c:	e3a0000b 	mov	r0, #11
    3370:	eb0010c6 	bl	7690 <Java_com_geohot_towelroot_TowelRoot_rootTheShit+0x6520>
    3374:	e24bea02 	sub	lr, fp, #8192	; 0x2000
    3378:	e596101c 	ldr	r1, [r6, #28]
    337c:	e51f2830 	ldr	r2, [pc, #-2096]	; 2b54 <Java_com_geohot_towelroot_TowelRoot_rootTheShit+0x19e4>
    3380:	e51e30dc 	ldr	r3, [lr, #-220]	; 0xdc
    3384:	e24bea02 	sub	lr, fp, #8192	; 0x2000
    3388:	e5810000 	str	r0, [r1]
    338c:	e7922003 	ldr	r2, [r2, r3]
    3390:	e5920000 	ldr	r0, [r2]
    3394:	e3012fff 	movw	r2, #8191	; 0x1fff
    3398:	e5900000 	ldr	r0, [r0]
    339c:	e5961020 	ldr	r1, [r6, #32]
    33a0:	e0202002 	eor	r2, r0, r2
    33a4:	e0020000 	and	r0, r2, r0
    33a8:	e5810000 	str	r0, [r1]
    33ac:	e5960020 	ldr	r0, [r6, #32]
    33b0:	e51e20dc 	ldr	r2, [lr, #-220]	; 0xdc
    33b4:	e24bea02 	sub	lr, fp, #8192	; 0x2000
    33b8:	e51f18c4 	ldr	r1, [pc, #-2244]	; 2afc <Java_com_geohot_towelroot_TowelRoot_rootTheShit+0x198c>
    33bc:	e5903000 	ldr	r3, [r0]
    33c0:	e3a00004 	mov	r0, #4
    33c4:	e0811002 	add	r1, r1, r2
    33c8:	e51e20e0 	ldr	r2, [lr, #-224]	; 0xe0
    33cc:	ebfff6d7 	bl	f30 <Java_com_geohot_towelroot_TowelRoot_rootTheShit-0x240>
    33d0:	e24bea02 	sub	lr, fp, #8192	; 0x2000
    33d4:	e51f080c 	ldr	r0, [pc, #-2060]	; 2bd0 <Java_com_geohot_towelroot_TowelRoot_rootTheShit+0x1a60>
    33d8:	e51e10dc 	ldr	r1, [lr, #-220]	; 0xdc
    33dc:	e24bea02 	sub	lr, fp, #8192	; 0x2000
    33e0:	e51e20e4 	ldr	r2, [lr, #-228]	; 0xe4
    33e4:	e24bea02 	sub	lr, fp, #8192	; 0x2000
    33e8:	e7900001 	ldr	r0, [r0, r1]
    33ec:	e3a01000 	mov	r1, #0
    33f0:	e5821000 	str	r1, [r2]
    33f4:	e5801000 	str	r1, [r0]
    33f8:	e596001c 	ldr	r0, [r6, #28]
    33fc:	e51e20dc 	ldr	r2, [lr, #-220]	; 0xdc
    3400:	e24bea02 	sub	lr, fp, #8192	; 0x2000
    3404:	e51f185c 	ldr	r1, [pc, #-2140]	; 2bb0 <Java_com_geohot_towelroot_TowelRoot_rootTheShit+0x1a40>
    3408:	e5900000 	ldr	r0, [r0]
    340c:	e7911002 	ldr	r1, [r1, r2]
    3410:	e50e1188 	str	r1, [lr, #-392]	; 0x188
    3414:	e24bea02 	sub	lr, fp, #8192	; 0x2000
    3418:	e50e018c 	str	r0, [lr, #-396]	; 0x18c
    341c:	e24bea02 	sub	lr, fp, #8192	; 0x2000
    3420:	e51e0188 	ldr	r0, [lr, #-392]	; 0x188
    3424:	ebfff6d0 	bl	f6c <Java_com_geohot_towelroot_TowelRoot_rootTheShit-0x204>
    3428:	e24bea02 	sub	lr, fp, #8192	; 0x2000
    342c:	e3a0100c 	mov	r1, #12
    3430:	e51e018c 	ldr	r0, [lr, #-396]	; 0x18c
    3434:	ebfff6e4 	bl	fcc <Java_com_geohot_towelroot_TowelRoot_rootTheShit-0x1a4>
    3438:	e24bea02 	sub	lr, fp, #8192	; 0x2000
    343c:	e51f0890 	ldr	r0, [pc, #-2192]	; 2bb4 <Java_com_geohot_towelroot_TowelRoot_rootTheShit+0x1a44>
    3440:	e51e10dc 	ldr	r1, [lr, #-220]	; 0xdc
    3444:	e24bea02 	sub	lr, fp, #8192	; 0x2000
    3448:	e7900001 	ldr	r0, [r0, r1]
    344c:	e51e1188 	ldr	r1, [lr, #-392]	; 0x188
    3450:	ebfff6c8 	bl	f78 <Java_com_geohot_towelroot_TowelRoot_rootTheShit-0x1f8>
    3454:	e24bea02 	sub	lr, fp, #8192	; 0x2000
    3458:	e51e0188 	ldr	r0, [lr, #-392]	; 0x188
    345c:	ebfff6dd 	bl	fd8 <Java_com_geohot_towelroot_TowelRoot_rootTheShit-0x198>
    3460:	e3090137 	movw	r0, #37175	; 0x9137
    3464:	e3a0c000 	mov	ip, #0
    3468:	e34604d0 	movt	r0, #25808	; 0x64d0
    346c:	ea00090f 	b	58b0 <Java_com_geohot_towelroot_TowelRoot_rootTheShit+0x4740>
    3470:	e5910000 	ldr	r0, [r1]
    3474:	e596100c 	ldr	r1, [r6, #12]
    3478:	e5810000 	str	r0, [r1]
    347c:	e3a0000b 	mov	r0, #11
    3480:	eb001082 	bl	7690 <Java_com_geohot_towelroot_TowelRoot_rootTheShit+0x6520>
    3484:	e5961010 	ldr	r1, [r6, #16]
    3488:	e24bea02 	sub	lr, fp, #8192	; 0x2000
    348c:	e5810000 	str	r0, [r1]
    3490:	e51e00d0 	ldr	r0, [lr, #-208]	; 0xd0
    3494:	e5900000 	ldr	r0, [r0]
    3498:	e5900000 	ldr	r0, [r0]
    349c:	e596100c 	ldr	r1, [r6, #12]
    34a0:	e5911000 	ldr	r1, [r1]
    34a4:	e1500001 	cmp	r0, r1
    34a8:	e3040215 	movw	r0, #16917	; 0x4215
    34ac:	e3470d92 	movt	r0, #32146	; 0x7d92
    34b0:	03050809 	movweq	r0, #22537	; 0x5809
    34b4:	034a005c 	movteq	r0, #41052	; 0xa05c
    34b8:	ea0008fb 	b	58ac <Java_com_geohot_towelroot_TowelRoot_rootTheShit+0x473c>
    34bc:	e30d1c7c 	movw	r1, #56444	; 0xdc7c
    34c0:	e34f18e4 	movt	r1, #63716	; 0xf8e4
    34c4:	e1500001 	cmp	r0, r1
    34c8:	ca00000e 	bgt	3508 <Java_com_geohot_towelroot_TowelRoot_rootTheShit+0x2398>
    34cc:	e30f1cb4 	movw	r1, #64692	; 0xfcb4
    34d0:	e3a0c000 	mov	ip, #0
    34d4:	e34f1382 	movt	r1, #62338	; 0xf382
    34d8:	e1500001 	cmp	r0, r1
    34dc:	e3091e8e 	movw	r1, #40590	; 0x9e8e
    34e0:	e3491438 	movt	r1, #37944	; 0x9438
    34e4:	e1a03001 	mov	r3, r1
    34e8:	e3081e01 	movw	r1, #36353	; 0x8e01
    34ec:	e3471f2b 	movt	r1, #32555	; 0x7f2b
    34f0:	e1a02001 	mov	r2, r1
    34f4:	e30b1e56 	movw	r1, #48726	; 0xbe56
    34f8:	e3471fa7 	movt	r1, #32679	; 0x7fa7
    34fc:	e1a0e001 	mov	lr, r1
    3500:	1afffacf 	bne	2044 <Java_com_geohot_towelroot_TowelRoot_rootTheShit+0xed4>
    3504:	ea0002cf 	b	4048 <Java_com_geohot_towelroot_TowelRoot_rootTheShit+0x2ed8>
    3508:	e30b1d34 	movw	r1, #48436	; 0xbd34
    350c:	e34f1b3d 	movt	r1, #64317	; 0xfb3d
    3510:	e1500001 	cmp	r0, r1
    3514:	ca000013 	bgt	3568 <Java_com_geohot_towelroot_TowelRoot_rootTheShit+0x23f8>
    3518:	e30d1c7d 	movw	r1, #56445	; 0xdc7d
    351c:	e3a0c000 	mov	ip, #0
    3520:	e34f18e4 	movt	r1, #63716	; 0xf8e4
    3524:	e1500001 	cmp	r0, r1
    3528:	e3091e8e 	movw	r1, #40590	; 0x9e8e
    352c:	e3491438 	movt	r1, #37944	; 0x9438
    3530:	e1a03001 	mov	r3, r1
    3534:	e3081e01 	movw	r1, #36353	; 0x8e01
    3538:	e3471f2b 	movt	r1, #32555	; 0x7f2b
    353c:	e1a02001 	mov	r2, r1
    3540:	e30b1e56 	movw	r1, #48726	; 0xbe56
    3544:	e3471fa7 	movt	r1, #32679	; 0x7fa7
    3548:	e1a0e001 	mov	lr, r1
    354c:	1afffabc 	bne	2044 <Java_com_geohot_towelroot_TowelRoot_rootTheShit+0xed4>
    3550:	e24b1a02 	sub	r1, fp, #8192	; 0x2000
    3554:	e51100f4 	ldr	r0, [r1, #-244]	; 0xf4
    3558:	e5900000 	ldr	r0, [r0]
    355c:	e3050981 	movw	r0, #22913	; 0x5981
    3560:	e34603b7 	movt	r0, #25527	; 0x63b7
    3564:	eafffab6 	b	2044 <Java_com_geohot_towelroot_TowelRoot_rootTheShit+0xed4>
    3568:	e30d1f09 	movw	r1, #57097	; 0xdf09
    356c:	e34f1b89 	movt	r1, #64393	; 0xfb89
    3570:	e1500001 	cmp	r0, r1
    3574:	ca00002b 	bgt	3628 <Java_com_geohot_towelroot_TowelRoot_rootTheShit+0x24b8>
    3578:	e30b1d35 	movw	r1, #48437	; 0xbd35
    357c:	e3a0c000 	mov	ip, #0
    3580:	e34f1b3d 	movt	r1, #64317	; 0xfb3d
    3584:	e1500001 	cmp	r0, r1
    3588:	e3091e8e 	movw	r1, #40590	; 0x9e8e
    358c:	e3491438 	movt	r1, #37944	; 0x9438
    3590:	e1a03001 	mov	r3, r1
    3594:	e3081e01 	movw	r1, #36353	; 0x8e01
    3598:	e3471f2b 	movt	r1, #32555	; 0x7f2b
    359c:	e1a02001 	mov	r2, r1
    35a0:	e30b1e56 	movw	r1, #48726	; 0xbe56
    35a4:	e3471fa7 	movt	r1, #32679	; 0x7fa7
    35a8:	e1a0e001 	mov	lr, r1
    35ac:	1afffaa4 	bne	2044 <Java_com_geohot_towelroot_TowelRoot_rootTheShit+0xed4>
    35b0:	e24bea02 	sub	lr, fp, #8192	; 0x2000
    35b4:	e51e00f8 	ldr	r0, [lr, #-248]	; 0xf8
    35b8:	e5901000 	ldr	r1, [r0]
    35bc:	e24dd010 	sub	sp, sp, #16
    35c0:	e1a08009 	mov	r8, r9
    35c4:	e1a0900a 	mov	r9, sl
    35c8:	e1a0a003 	mov	sl, r3
    35cc:	e3a000f0 	mov	r0, #240	; 0xf0
    35d0:	e3a02006 	mov	r2, #6
    35d4:	e3a03001 	mov	r3, #1
    35d8:	e58dc000 	str	ip, [sp]
    35dc:	e58dc004 	str	ip, [sp, #4]
    35e0:	e58dc008 	str	ip, [sp, #8]
    35e4:	ebfff675 	bl	fc0 <Java_com_geohot_towelroot_TowelRoot_rootTheShit-0x1b0>
    35e8:	e30b0e56 	movw	r0, #48726	; 0xbe56
    35ec:	e1a0300a 	mov	r3, sl
    35f0:	e3470fa7 	movt	r0, #32679	; 0x7fa7
    35f4:	e1a0a009 	mov	sl, r9
    35f8:	e1a0e000 	mov	lr, r0
    35fc:	e3080e01 	movw	r0, #36353	; 0x8e01
    3600:	e3470f2b 	movt	r0, #32555	; 0x7f2b
    3604:	e1a09008 	mov	r9, r8
    3608:	e1a02000 	mov	r2, r0
    360c:	e30504d5 	movw	r0, #21717	; 0x54d5
    3610:	e3480e5b 	movt	r0, #36443	; 0x8e5b
    3614:	e3a0c000 	mov	ip, #0
    3618:	e1a08000 	mov	r8, r0
    361c:	e28dd010 	add	sp, sp, #16
    3620:	e1a00003 	mov	r0, r3
    3624:	eafffa86 	b	2044 <Java_com_geohot_towelroot_TowelRoot_rootTheShit+0xed4>
    3628:	e3061262 	movw	r1, #25186	; 0x6262
    362c:	e34f1c85 	movt	r1, #64645	; 0xfc85
    3630:	e1500001 	cmp	r0, r1
    3634:	ca00000e 	bgt	3674 <Java_com_geohot_towelroot_TowelRoot_rootTheShit+0x2504>
    3638:	e30d1f0a 	movw	r1, #57098	; 0xdf0a
    363c:	e3a0c000 	mov	ip, #0
    3640:	e34f1b89 	movt	r1, #64393	; 0xfb89
    3644:	e1500001 	cmp	r0, r1
    3648:	e3091e8e 	movw	r1, #40590	; 0x9e8e
    364c:	e3491438 	movt	r1, #37944	; 0x9438
    3650:	e1a03001 	mov	r3, r1
    3654:	e3081e01 	movw	r1, #36353	; 0x8e01
    3658:	e3471f2b 	movt	r1, #32555	; 0x7f2b
    365c:	01a00003 	moveq	r0, r3
    3660:	e1a02001 	mov	r2, r1
    3664:	e30b1e56 	movw	r1, #48726	; 0xbe56
    3668:	e3471fa7 	movt	r1, #32679	; 0x7fa7
    366c:	e1a0e001 	mov	lr, r1
    3670:	eafffa73 	b	2044 <Java_com_geohot_towelroot_TowelRoot_rootTheShit+0xed4>
    3674:	e3031b03 	movw	r1, #15107	; 0x3b03
    3678:	e3401ae9 	movt	r1, #2793	; 0xae9
    367c:	e1500001 	cmp	r0, r1
    3680:	ca000010 	bgt	36c8 <Java_com_geohot_towelroot_TowelRoot_rootTheShit+0x2558>
    3684:	e3061263 	movw	r1, #25187	; 0x6263
    3688:	e3a0c000 	mov	ip, #0
    368c:	e34f1c85 	movt	r1, #64645	; 0xfc85
    3690:	e1500001 	cmp	r0, r1
    3694:	e3091e8e 	movw	r1, #40590	; 0x9e8e
    3698:	e3491438 	movt	r1, #37944	; 0x9438
    369c:	e1a03001 	mov	r3, r1
    36a0:	e3081e01 	movw	r1, #36353	; 0x8e01
    36a4:	e3471f2b 	movt	r1, #32555	; 0x7f2b
    36a8:	e1a02001 	mov	r2, r1
    36ac:	e30b1e56 	movw	r1, #48726	; 0xbe56
    36b0:	e3471fa7 	movt	r1, #32679	; 0x7fa7
    36b4:	e1a0e001 	mov	lr, r1
    36b8:	1afffa61 	bne	2044 <Java_com_geohot_towelroot_TowelRoot_rootTheShit+0xed4>
    36bc:	e3090137 	movw	r0, #37175	; 0x9137
    36c0:	e34604d0 	movt	r0, #25808	; 0x64d0
    36c4:	eafffa5e 	b	2044 <Java_com_geohot_towelroot_TowelRoot_rootTheShit+0xed4>
    36c8:	e30818c6 	movw	r1, #35014	; 0x88c6
    36cc:	e3401b33 	movt	r1, #2867	; 0xb33
    36d0:	e1500001 	cmp	r0, r1
    36d4:	ca00000e 	bgt	3714 <Java_com_geohot_towelroot_TowelRoot_rootTheShit+0x25a4>
    36d8:	e3031b04 	movw	r1, #15108	; 0x3b04
    36dc:	e3a0c000 	mov	ip, #0
    36e0:	e3401ae9 	movt	r1, #2793	; 0xae9
    36e4:	e1500001 	cmp	r0, r1
    36e8:	e3091e8e 	movw	r1, #40590	; 0x9e8e
    36ec:	e3491438 	movt	r1, #37944	; 0x9438
    36f0:	e1a03001 	mov	r3, r1
    36f4:	e3081e01 	movw	r1, #36353	; 0x8e01
    36f8:	e3471f2b 	movt	r1, #32555	; 0x7f2b
    36fc:	e1a02001 	mov	r2, r1
    3700:	e30b1e56 	movw	r1, #48726	; 0xbe56
    3704:	e3471fa7 	movt	r1, #32679	; 0x7fa7
    3708:	e1a0e001 	mov	lr, r1
    370c:	1afffa4c 	bne	2044 <Java_com_geohot_towelroot_TowelRoot_rootTheShit+0xed4>
    3710:	ea0006c8 	b	5238 <Java_com_geohot_towelroot_TowelRoot_rootTheShit+0x40c8>
    3714:	e30e133c 	movw	r1, #58172	; 0xe33c
    3718:	e3401d7e 	movt	r1, #3454	; 0xd7e
    371c:	e1500001 	cmp	r0, r1
    3720:	ca000010 	bgt	3768 <Java_com_geohot_towelroot_TowelRoot_rootTheShit+0x25f8>
    3724:	e30818c7 	movw	r1, #35015	; 0x88c7
    3728:	e3a0c000 	mov	ip, #0
    372c:	e3401b33 	movt	r1, #2867	; 0xb33
    3730:	e1500001 	cmp	r0, r1
    3734:	e3091e8e 	movw	r1, #40590	; 0x9e8e
    3738:	e3491438 	movt	r1, #37944	; 0x9438
    373c:	e1a03001 	mov	r3, r1
    3740:	e3081e01 	movw	r1, #36353	; 0x8e01
    3744:	e3471f2b 	movt	r1, #32555	; 0x7f2b
    3748:	e1a02001 	mov	r2, r1
    374c:	e30b1e56 	movw	r1, #48726	; 0xbe56
    3750:	e3471fa7 	movt	r1, #32679	; 0x7fa7
    3754:	e1a0e001 	mov	lr, r1
    3758:	1afffa39 	bne	2044 <Java_com_geohot_towelroot_TowelRoot_rootTheShit+0xed4>
    375c:	e30f0cb4 	movw	r0, #64692	; 0xfcb4
    3760:	e34f0382 	movt	r0, #62338	; 0xf382
    3764:	eafffa36 	b	2044 <Java_com_geohot_towelroot_TowelRoot_rootTheShit+0xed4>
    3768:	e3061efb 	movw	r1, #28411	; 0x6efb
    376c:	e3401da2 	movt	r1, #3490	; 0xda2
    3770:	e1500001 	cmp	r0, r1
    3774:	ca000010 	bgt	37bc <Java_com_geohot_towelroot_TowelRoot_rootTheShit+0x264c>
    3778:	e30e133d 	movw	r1, #58173	; 0xe33d
    377c:	e3a0c000 	mov	ip, #0
    3780:	e3401d7e 	movt	r1, #3454	; 0xd7e
    3784:	e1500001 	cmp	r0, r1
    3788:	e3091e8e 	movw	r1, #40590	; 0x9e8e
    378c:	e3491438 	movt	r1, #37944	; 0x9438
    3790:	e1a03001 	mov	r3, r1
    3794:	e3081e01 	movw	r1, #36353	; 0x8e01
    3798:	e3471f2b 	movt	r1, #32555	; 0x7f2b
    379c:	e1a02001 	mov	r2, r1
    37a0:	e30b1e56 	movw	r1, #48726	; 0xbe56
    37a4:	e3471fa7 	movt	r1, #32679	; 0x7fa7
    37a8:	e1a0e001 	mov	lr, r1
    37ac:	1afffa24 	bne	2044 <Java_com_geohot_towelroot_TowelRoot_rootTheShit+0xed4>
    37b0:	e3070b2d 	movw	r0, #31533	; 0x7b2d
    37b4:	e34609d6 	movt	r0, #27094	; 0x69d6
    37b8:	eafffa21 	b	2044 <Java_com_geohot_towelroot_TowelRoot_rootTheShit+0xed4>
    37bc:	e3021ea9 	movw	r1, #11945	; 0x2ea9
    37c0:	e3411022 	movt	r1, #4130	; 0x1022
    37c4:	e1500001 	cmp	r0, r1
    37c8:	ca00001a 	bgt	3838 <Java_com_geohot_towelroot_TowelRoot_rootTheShit+0x26c8>
    37cc:	e3061efc 	movw	r1, #28412	; 0x6efc
    37d0:	e3a0c000 	mov	ip, #0
    37d4:	e3401da2 	movt	r1, #3490	; 0xda2
    37d8:	e1500001 	cmp	r0, r1
    37dc:	e3091e8e 	movw	r1, #40590	; 0x9e8e
    37e0:	e3491438 	movt	r1, #37944	; 0x9438
    37e4:	e1a03001 	mov	r3, r1
    37e8:	e3081e01 	movw	r1, #36353	; 0x8e01
    37ec:	e3471f2b 	movt	r1, #32555	; 0x7f2b
    37f0:	e1a02001 	mov	r2, r1
    37f4:	e30b1e56 	movw	r1, #48726	; 0xbe56
    37f8:	e3471fa7 	movt	r1, #32679	; 0x7fa7
    37fc:	e1a0e001 	mov	lr, r1
    3800:	1afffa0f 	bne	2044 <Java_com_geohot_towelroot_TowelRoot_rootTheShit+0xed4>
    3804:	e24bea02 	sub	lr, fp, #8192	; 0x2000
    3808:	e307c51c 	movw	ip, #29980	; 0x751c
    380c:	e346c4a8 	movt	ip, #25768	; 0x64a8
    3810:	e51e00fc 	ldr	r0, [lr, #-252]	; 0xfc
    3814:	e24bea02 	sub	lr, fp, #8192	; 0x2000
    3818:	e5900000 	ldr	r0, [r0]
    381c:	e2603000 	rsb	r3, r0, #0
    3820:	e2801008 	add	r1, r0, #8
    3824:	e2802028 	add	r2, r0, #40	; 0x28
    3828:	e2633020 	rsb	r3, r3, #32
    382c:	e50e1188 	str	r1, [lr, #-392]	; 0x188
    3830:	e1a01000 	mov	r1, r0
    3834:	ea000023 	b	38c8 <Java_com_geohot_towelroot_TowelRoot_rootTheShit+0x2758>
    3838:	e30d13d3 	movw	r1, #54227	; 0xd3d3
    383c:	e3411297 	movt	r1, #4759	; 0x1297
    3840:	e1500001 	cmp	r0, r1
    3844:	ca00002f 	bgt	3908 <Java_com_geohot_towelroot_TowelRoot_rootTheShit+0x2798>
    3848:	e3021eaa 	movw	r1, #11946	; 0x2eaa
    384c:	e3a0c000 	mov	ip, #0
    3850:	e3411022 	movt	r1, #4130	; 0x1022
    3854:	e1500001 	cmp	r0, r1
    3858:	e3091e8e 	movw	r1, #40590	; 0x9e8e
    385c:	e3491438 	movt	r1, #37944	; 0x9438
    3860:	e1a03001 	mov	r3, r1
    3864:	e3081e01 	movw	r1, #36353	; 0x8e01
    3868:	e3471f2b 	movt	r1, #32555	; 0x7f2b
    386c:	e1a02001 	mov	r2, r1
    3870:	e30b1e56 	movw	r1, #48726	; 0xbe56
    3874:	e3471fa7 	movt	r1, #32679	; 0x7fa7
    3878:	e1a0e001 	mov	lr, r1
    387c:	1afff9f0 	bne	2044 <Java_com_geohot_towelroot_TowelRoot_rootTheShit+0xed4>
    3880:	e3040a40 	movw	r0, #19008	; 0x4a40
    3884:	e3420e61 	movt	r0, #11873	; 0x2e61
    3888:	eafff9ed 	b	2044 <Java_com_geohot_towelroot_TowelRoot_rootTheShit+0xed4>
    388c:	e1a0c001 	mov	ip, r1
    3890:	e24c0004 	sub	r0, ip, #4
    3894:	e3a01081 	mov	r1, #129	; 0x81
    3898:	e24bea02 	sub	lr, fp, #8192	; 0x2000
    389c:	e5801000 	str	r1, [r0]
    38a0:	e3a00085 	mov	r0, #133	; 0x85
    38a4:	e58c3000 	str	r3, [ip]
    38a8:	e1a0100c 	mov	r1, ip
    38ac:	e58c2008 	str	r2, [ip, #8]
    38b0:	e58c001c 	str	r0, [ip, #28]
    38b4:	e51e0188 	ldr	r0, [lr, #-392]	; 0x188
    38b8:	e58cc024 	str	ip, [ip, #36]	; 0x24
    38bc:	e58c002c 	str	r0, [ip, #44]	; 0x2c
    38c0:	e305c18e 	movw	ip, #20878	; 0x518e
    38c4:	e343c068 	movt	ip, #12392	; 0x3068
    38c8:	e305018e 	movw	r0, #20878	; 0x518e
    38cc:	e1a0e00c 	mov	lr, ip
    38d0:	e3430068 	movt	r0, #12392	; 0x3068
    38d4:	e15e0000 	cmp	lr, r0
    38d8:	0a000022 	beq	3968 <Java_com_geohot_towelroot_TowelRoot_rootTheShit+0x27f8>
    38dc:	e304c86e 	movw	ip, #18542	; 0x486e
    38e0:	e307051c 	movw	r0, #29980	; 0x751c
    38e4:	e34ec360 	movt	ip, #58208	; 0xe360
    38e8:	e34604a8 	movt	r0, #25768	; 0x64a8
    38ec:	e15e0000 	cmp	lr, r0
    38f0:	0afffff4 	beq	38c8 <Java_com_geohot_towelroot_TowelRoot_rootTheShit+0x2758>
    38f4:	e304086e 	movw	r0, #18542	; 0x486e
    38f8:	e34e0360 	movt	r0, #58208	; 0xe360
    38fc:	e15e0000 	cmp	lr, r0
    3900:	0affffe1 	beq	388c <Java_com_geohot_towelroot_TowelRoot_rootTheShit+0x271c>
    3904:	ea0007fd 	b	5900 <Java_com_geohot_towelroot_TowelRoot_rootTheShit+0x4790>
    3908:	e30c1176 	movw	r1, #49526	; 0xc176
    390c:	e34113ad 	movt	r1, #5037	; 0x13ad
    3910:	e1500001 	cmp	r0, r1
    3914:	ca000025 	bgt	39b0 <Java_com_geohot_towelroot_TowelRoot_rootTheShit+0x2840>
    3918:	e30d13d4 	movw	r1, #54228	; 0xd3d4
    391c:	e3a0c000 	mov	ip, #0
    3920:	e3411297 	movt	r1, #4759	; 0x1297
    3924:	e1500001 	cmp	r0, r1
    3928:	e3091e8e 	movw	r1, #40590	; 0x9e8e
    392c:	e3491438 	movt	r1, #37944	; 0x9438
    3930:	e1a03001 	mov	r3, r1
    3934:	e3081e01 	movw	r1, #36353	; 0x8e01
    3938:	e3471f2b 	movt	r1, #32555	; 0x7f2b
    393c:	e1a02001 	mov	r2, r1
    3940:	e30b1e56 	movw	r1, #48726	; 0xbe56
    3944:	e3471fa7 	movt	r1, #32679	; 0x7fa7
    3948:	e1a0e001 	mov	lr, r1
    394c:	1afff9bc 	bne	2044 <Java_com_geohot_towelroot_TowelRoot_rootTheShit+0xed4>
    3950:	e5d6003f 	ldrb	r0, [r6, #63]	; 0x3f
    3954:	e3500000 	cmp	r0, #0
    3958:	e1a00004 	mov	r0, r4
    395c:	13060a2f 	movwne	r0, #27183	; 0x6a2f
    3960:	134c0812 	movtne	r0, #51218	; 0xc812
    3964:	eafff9b6 	b	2044 <Java_com_geohot_towelroot_TowelRoot_rootTheShit+0xed4>
    3968:	e24bea02 	sub	lr, fp, #8192	; 0x2000
    396c:	e5960020 	ldr	r0, [r6, #32]
    3970:	e51e1100 	ldr	r1, [lr, #-256]	; 0x100
    3974:	e5900000 	ldr	r0, [r0]
    3978:	e5911000 	ldr	r1, [r1]
    397c:	e2800008 	add	r0, r0, #8
    3980:	e5810024 	str	r0, [r1, #36]	; 0x24
    3984:	e3a0000c 	mov	r0, #12
    3988:	eb000f40 	bl	7690 <Java_com_geohot_towelroot_TowelRoot_rootTheShit+0x6520>
    398c:	e24bea02 	sub	lr, fp, #8192	; 0x2000
    3990:	e51e0100 	ldr	r0, [lr, #-256]	; 0x100
    3994:	e5900000 	ldr	r0, [r0]
    3998:	e5900024 	ldr	r0, [r0, #36]	; 0x24
    399c:	e5961028 	ldr	r1, [r6, #40]	; 0x28
    39a0:	e5810000 	str	r0, [r1]
    39a4:	e3010cab 	movw	r0, #7339	; 0x1cab
    39a8:	e342030f 	movt	r0, #8975	; 0x230f
    39ac:	ea0007be 	b	58ac <Java_com_geohot_towelroot_TowelRoot_rootTheShit+0x473c>
    39b0:	e303134c 	movw	r1, #13132	; 0x334c
    39b4:	e34113f6 	movt	r1, #5110	; 0x13f6
    39b8:	e1500001 	cmp	r0, r1
    39bc:	ca00000e 	bgt	39fc <Java_com_geohot_towelroot_TowelRoot_rootTheShit+0x288c>
    39c0:	e30c1177 	movw	r1, #49527	; 0xc177
    39c4:	e3a0c000 	mov	ip, #0
    39c8:	e34113ad 	movt	r1, #5037	; 0x13ad
    39cc:	e1500001 	cmp	r0, r1
    39d0:	e3091e8e 	movw	r1, #40590	; 0x9e8e
    39d4:	e3491438 	movt	r1, #37944	; 0x9438
    39d8:	e1a03001 	mov	r3, r1
    39dc:	e3081e01 	movw	r1, #36353	; 0x8e01
    39e0:	e3471f2b 	movt	r1, #32555	; 0x7f2b
    39e4:	e1a02001 	mov	r2, r1
    39e8:	e30b1e56 	movw	r1, #48726	; 0xbe56
    39ec:	e3471fa7 	movt	r1, #32679	; 0x7fa7
    39f0:	e1a0e001 	mov	lr, r1
    39f4:	1afff992 	bne	2044 <Java_com_geohot_towelroot_TowelRoot_rootTheShit+0xed4>
    39f8:	ea000506 	b	4e18 <Java_com_geohot_towelroot_TowelRoot_rootTheShit+0x3ca8>
    39fc:	e3061de0 	movw	r1, #28128	; 0x6de0
    3a00:	e341167d 	movt	r1, #5757	; 0x167d
    3a04:	e1500001 	cmp	r0, r1
    3a08:	ca00000e 	bgt	3a48 <Java_com_geohot_towelroot_TowelRoot_rootTheShit+0x28d8>
    3a0c:	e303134d 	movw	r1, #13133	; 0x334d
    3a10:	e3a0c000 	mov	ip, #0
    3a14:	e34113f6 	movt	r1, #5110	; 0x13f6
    3a18:	e1500001 	cmp	r0, r1
    3a1c:	e3091e8e 	movw	r1, #40590	; 0x9e8e
    3a20:	e3491438 	movt	r1, #37944	; 0x9438
    3a24:	e1a03001 	mov	r3, r1
    3a28:	e3081e01 	movw	r1, #36353	; 0x8e01
    3a2c:	e3471f2b 	movt	r1, #32555	; 0x7f2b
    3a30:	e1a02001 	mov	r2, r1
    3a34:	e30b1e56 	movw	r1, #48726	; 0xbe56
    3a38:	e3471fa7 	movt	r1, #32679	; 0x7fa7
    3a3c:	e1a0e001 	mov	lr, r1
    3a40:	1afff97f 	bne	2044 <Java_com_geohot_towelroot_TowelRoot_rootTheShit+0xed4>
    3a44:	ea0004c7 	b	4d68 <Java_com_geohot_towelroot_TowelRoot_rootTheShit+0x3bf8>
    3a48:	e3001e17 	movw	r1, #3607	; 0xe17
    3a4c:	e3411988 	movt	r1, #6536	; 0x1988
    3a50:	e1500001 	cmp	r0, r1
    3a54:	ca000023 	bgt	3ae8 <Java_com_geohot_towelroot_TowelRoot_rootTheShit+0x2978>
    3a58:	e3061de1 	movw	r1, #28129	; 0x6de1
    3a5c:	e3a0c000 	mov	ip, #0
    3a60:	e341167d 	movt	r1, #5757	; 0x167d
    3a64:	e1500001 	cmp	r0, r1
    3a68:	e3091e8e 	movw	r1, #40590	; 0x9e8e
    3a6c:	e3491438 	movt	r1, #37944	; 0x9438
    3a70:	e1a03001 	mov	r3, r1
    3a74:	e3081e01 	movw	r1, #36353	; 0x8e01
    3a78:	e3471f2b 	movt	r1, #32555	; 0x7f2b
    3a7c:	e1a02001 	mov	r2, r1
    3a80:	e30b1e56 	movw	r1, #48726	; 0xbe56
    3a84:	e3471fa7 	movt	r1, #32679	; 0x7fa7
    3a88:	e1a0e001 	mov	lr, r1
    3a8c:	1afff96c 	bne	2044 <Java_com_geohot_towelroot_TowelRoot_rootTheShit+0xed4>
    3a90:	e596001c 	ldr	r0, [r6, #28]
    3a94:	e24bea02 	sub	lr, fp, #8192	; 0x2000
    3a98:	e51e1104 	ldr	r1, [lr, #-260]	; 0x104
    3a9c:	e24bea01 	sub	lr, fp, #4096	; 0x1000
    3aa0:	e5902000 	ldr	r2, [r0]
    3aa4:	e51f0ee4 	ldr	r0, [pc, #-3812]	; 2bc8 <Java_com_geohot_towelroot_TowelRoot_rootTheShit+0x1a58>
    3aa8:	e0801001 	add	r1, r0, r1
    3aac:	e24e0028 	sub	r0, lr, #40	; 0x28
    3ab0:	ebfff54e 	bl	ff0 <Java_com_geohot_towelroot_TowelRoot_rootTheShit-0x180>
    3ab4:	e24bea02 	sub	lr, fp, #8192	; 0x2000
    3ab8:	e51f0ef4 	ldr	r0, [pc, #-3828]	; 2bcc <Java_com_geohot_towelroot_TowelRoot_rootTheShit+0x1a5c>
    3abc:	e51e1104 	ldr	r1, [lr, #-260]	; 0x104
    3ac0:	e24bea01 	sub	lr, fp, #4096	; 0x1000
    3ac4:	e0801001 	add	r1, r0, r1
    3ac8:	e24e0028 	sub	r0, lr, #40	; 0x28
    3acc:	ebfff54a 	bl	ffc <Java_com_geohot_towelroot_TowelRoot_rootTheShit-0x174>
    3ad0:	e24bea02 	sub	lr, fp, #8192	; 0x2000
    3ad4:	e305144c 	movw	r1, #21580	; 0x544c
    3ad8:	e50b0028 	str	r0, [fp, #-40]	; 0x28
    3adc:	e3401801 	movt	r1, #2049	; 0x801
    3ae0:	e50e0170 	str	r0, [lr, #-368]	; 0x170
    3ae4:	ea000026 	b	3b84 <Java_com_geohot_towelroot_TowelRoot_rootTheShit+0x2a14>
    3ae8:	e30717b2 	movw	r1, #30642	; 0x77b2
    3aec:	e3411aab 	movt	r1, #6827	; 0x1aab
    3af0:	e1500001 	cmp	r0, r1
    3af4:	ca00005b 	bgt	3c68 <Java_com_geohot_towelroot_TowelRoot_rootTheShit+0x2af8>
    3af8:	e3001e18 	movw	r1, #3608	; 0xe18
    3afc:	e3a0c000 	mov	ip, #0
    3b00:	e3411988 	movt	r1, #6536	; 0x1988
    3b04:	e1500001 	cmp	r0, r1
    3b08:	e3091e8e 	movw	r1, #40590	; 0x9e8e
    3b0c:	e3491438 	movt	r1, #37944	; 0x9438
    3b10:	e1a03001 	mov	r3, r1
    3b14:	e3081e01 	movw	r1, #36353	; 0x8e01
    3b18:	e3471f2b 	movt	r1, #32555	; 0x7f2b
    3b1c:	e1a02001 	mov	r2, r1
    3b20:	e30b1e56 	movw	r1, #48726	; 0xbe56
    3b24:	e3471fa7 	movt	r1, #32679	; 0x7fa7
    3b28:	e1a0e001 	mov	lr, r1
    3b2c:	1afff944 	bne	2044 <Java_com_geohot_towelroot_TowelRoot_rootTheShit+0xed4>
    3b30:	e24b1a02 	sub	r1, fp, #8192	; 0x2000
    3b34:	e5110110 	ldr	r0, [r1, #-272]	; 0x110
    3b38:	e5900000 	ldr	r0, [r0]
    3b3c:	e3500000 	cmp	r0, #0
    3b40:	e3a00000 	mov	r0, #0
    3b44:	03000001 	movweq	r0, #1
    3b48:	e5c6003d 	strb	r0, [r6, #61]	; 0x3d
    3b4c:	e30a0f78 	movw	r0, #44920	; 0xaf78
    3b50:	e34c0002 	movt	r0, #49154	; 0xc002
    3b54:	eafff93a 	b	2044 <Java_com_geohot_towelroot_TowelRoot_rootTheShit+0xed4>
    3b58:	e300176e 	movw	r1, #1902	; 0x76e
    3b5c:	e50b0024 	str	r0, [fp, #-36]	; 0x24
    3b60:	e3401bf6 	movt	r1, #3062	; 0xbf6
    3b64:	ea000006 	b	3b84 <Java_com_geohot_towelroot_TowelRoot_rootTheShit+0x2a14>
    3b68:	e3052fd9 	movw	r2, #24537	; 0x5fd9
    3b6c:	e3e00000 	mvn	r0, #0
    3b70:	e3452c66 	movt	r2, #23654	; 0x5c66
    3b74:	e1510002 	cmp	r1, r2
    3b78:	e303189c 	movw	r1, #14492	; 0x389c
    3b7c:	e34a15fa 	movt	r1, #42490	; 0xa5fa
    3b80:	1a00075f 	bne	5904 <Java_com_geohot_towelroot_TowelRoot_rootTheShit+0x4794>
    3b84:	e305244b 	movw	r2, #21579	; 0x544b
    3b88:	e3402801 	movt	r2, #2049	; 0x801
    3b8c:	e1510002 	cmp	r1, r2
    3b90:	ca000007 	bgt	3bb4 <Java_com_geohot_towelroot_TowelRoot_rootTheShit+0x2a44>
    3b94:	e30b2936 	movw	r2, #47414	; 0xb936
    3b98:	e303389c 	movw	r3, #14492	; 0x389c
    3b9c:	e34227b0 	movt	r2, #10160	; 0x27b0
    3ba0:	e34a35fa 	movt	r3, #42490	; 0xa5fa
    3ba4:	e1510003 	cmp	r1, r3
    3ba8:	e1a01002 	mov	r1, r2
    3bac:	0afffff4 	beq	3b84 <Java_com_geohot_towelroot_TowelRoot_rootTheShit+0x2a14>
    3bb0:	ea000753 	b	5904 <Java_com_geohot_towelroot_TowelRoot_rootTheShit+0x4794>
    3bb4:	e3052fd8 	movw	r2, #24536	; 0x5fd8
    3bb8:	e3452c66 	movt	r2, #23654	; 0x5c66
    3bbc:	e1510002 	cmp	r1, r2
    3bc0:	caffffe8 	bgt	3b68 <Java_com_geohot_towelroot_TowelRoot_rootTheShit+0x29f8>
    3bc4:	e305208d 	movw	r2, #20621	; 0x508d
    3bc8:	e3442d5c 	movt	r2, #19804	; 0x4d5c
    3bcc:	e1510002 	cmp	r1, r2
    3bd0:	ca000008 	bgt	3bf8 <Java_com_geohot_towelroot_TowelRoot_rootTheShit+0x2a88>
    3bd4:	e305244c 	movw	r2, #21580	; 0x544c
    3bd8:	e3402801 	movt	r2, #2049	; 0x801
    3bdc:	e1510002 	cmp	r1, r2
    3be0:	0a000019 	beq	3c4c <Java_com_geohot_towelroot_TowelRoot_rootTheShit+0x2adc>
    3be4:	e30b2936 	movw	r2, #47414	; 0xb936
    3be8:	e34227b0 	movt	r2, #10160	; 0x27b0
    3bec:	e1510002 	cmp	r1, r2
    3bf0:	0affffd8 	beq	3b58 <Java_com_geohot_towelroot_TowelRoot_rootTheShit+0x29e8>
    3bf4:	ea00004e 	b	3d34 <Java_com_geohot_towelroot_TowelRoot_rootTheShit+0x2bc4>
    3bf8:	e305008e 	movw	r0, #20622	; 0x508e
    3bfc:	e3440d5c 	movt	r0, #19804	; 0x4d5c
    3c00:	e1510000 	cmp	r1, r0
    3c04:	1a00073e 	bne	5904 <Java_com_geohot_towelroot_TowelRoot_rootTheShit+0x4794>
    3c08:	e24bea02 	sub	lr, fp, #8192	; 0x2000
    3c0c:	e3a01001 	mov	r1, #1
    3c10:	e24e0028 	sub	r0, lr, #40	; 0x28
    3c14:	e24bea02 	sub	lr, fp, #8192	; 0x2000
    3c18:	e3a02a01 	mov	r2, #4096	; 0x1000
    3c1c:	e51e3170 	ldr	r3, [lr, #-368]	; 0x170
    3c20:	ebfff4f8 	bl	1008 <Java_com_geohot_towelroot_TowelRoot_rootTheShit-0x168>
    3c24:	e24bea02 	sub	lr, fp, #8192	; 0x2000
    3c28:	e24e0028 	sub	r0, lr, #40	; 0x28
    3c2c:	e24bea02 	sub	lr, fp, #8192	; 0x2000
    3c30:	e51e110c 	ldr	r1, [lr, #-268]	; 0x10c
    3c34:	ebfff4f6 	bl	1014 <Java_com_geohot_towelroot_TowelRoot_rootTheShit-0x15c>
    3c38:	e2800019 	add	r0, r0, #25
    3c3c:	ebfff4f7 	bl	1020 <Java_com_geohot_towelroot_TowelRoot_rootTheShit-0x150>
    3c40:	e303189c 	movw	r1, #14492	; 0x389c
    3c44:	e34a15fa 	movt	r1, #42490	; 0xa5fa
    3c48:	eaffffcd 	b	3b84 <Java_com_geohot_towelroot_TowelRoot_rootTheShit+0x2a14>
    3c4c:	e51b1028 	ldr	r1, [fp, #-40]	; 0x28
    3c50:	e3510000 	cmp	r1, #0
    3c54:	e305108e 	movw	r1, #20622	; 0x508e
    3c58:	e3441d5c 	movt	r1, #19804	; 0x4d5c
    3c5c:	03051fd9 	movweq	r1, #24537	; 0x5fd9
    3c60:	03451c66 	movteq	r1, #23654	; 0x5c66
    3c64:	eaffffc6 	b	3b84 <Java_com_geohot_towelroot_TowelRoot_rootTheShit+0x2a14>
    3c68:	e30d1323 	movw	r1, #54051	; 0xd323
    3c6c:	e3411ae6 	movt	r1, #6886	; 0x1ae6
    3c70:	e1500001 	cmp	r0, r1
    3c74:	ca00003c 	bgt	3d6c <Java_com_geohot_towelroot_TowelRoot_rootTheShit+0x2bfc>
    3c78:	e30717b3 	movw	r1, #30643	; 0x77b3
    3c7c:	e3a0c000 	mov	ip, #0
    3c80:	e3411aab 	movt	r1, #6827	; 0x1aab
    3c84:	e1500001 	cmp	r0, r1
    3c88:	e3091e8e 	movw	r1, #40590	; 0x9e8e
    3c8c:	e3491438 	movt	r1, #37944	; 0x9438
    3c90:	e1a03001 	mov	r3, r1
    3c94:	e3081e01 	movw	r1, #36353	; 0x8e01
    3c98:	e3471f2b 	movt	r1, #32555	; 0x7f2b
    3c9c:	e1a02001 	mov	r2, r1
    3ca0:	e30b1e56 	movw	r1, #48726	; 0xbe56
    3ca4:	e3471fa7 	movt	r1, #32679	; 0x7fa7
    3ca8:	e1a0e001 	mov	lr, r1
    3cac:	1afff8e4 	bne	2044 <Java_com_geohot_towelroot_TowelRoot_rootTheShit+0xed4>
    3cb0:	e24bea02 	sub	lr, fp, #8192	; 0x2000
    3cb4:	e59f0fe4 	ldr	r0, [pc, #4068]	; 4ca0 <Java_com_geohot_towelroot_TowelRoot_rootTheShit+0x3b30>
    3cb8:	e51e1114 	ldr	r1, [lr, #-276]	; 0x114
    3cbc:	e24bea02 	sub	lr, fp, #8192	; 0x2000
    3cc0:	e7900001 	ldr	r0, [r0, r1]
    3cc4:	e51e1118 	ldr	r1, [lr, #-280]	; 0x118
    3cc8:	e5900000 	ldr	r0, [r0]
    3ccc:	e5911000 	ldr	r1, [r1]
    3cd0:	e5913000 	ldr	r3, [r1]
    3cd4:	e24dd010 	sub	sp, sp, #16
    3cd8:	e58dc000 	str	ip, [sp]
    3cdc:	e3a0200c 	mov	r2, #12
    3ce0:	e98d0009 	stmib	sp, {r0, r3}
    3ce4:	e3a000f0 	mov	r0, #240	; 0xf0
    3ce8:	e3a03001 	mov	r3, #1
    3cec:	ebfff4b3 	bl	fc0 <Java_com_geohot_towelroot_TowelRoot_rootTheShit-0x1b0>
    3cf0:	e30b1e56 	movw	r1, #48726	; 0xbe56
    3cf4:	e3a0c000 	mov	ip, #0
    3cf8:	e3471fa7 	movt	r1, #32679	; 0x7fa7
    3cfc:	e1a0e001 	mov	lr, r1
    3d00:	e3081e01 	movw	r1, #36353	; 0x8e01
    3d04:	e3471f2b 	movt	r1, #32555	; 0x7f2b
    3d08:	e1a02001 	mov	r2, r1
    3d0c:	e3091e8e 	movw	r1, #40590	; 0x9e8e
    3d10:	e3491438 	movt	r1, #37944	; 0x9438
    3d14:	e1a03001 	mov	r3, r1
    3d18:	e28dd010 	add	sp, sp, #16
    3d1c:	e3500001 	cmp	r0, #1
    3d20:	e3020eaa 	movw	r0, #11946	; 0x2eaa
    3d24:	e3410022 	movt	r0, #4130	; 0x1022
    3d28:	13020e11 	movwne	r0, #11793	; 0x2e11
    3d2c:	134e09b0 	movtne	r0, #59824	; 0xe9b0
    3d30:	eafff8c3 	b	2044 <Java_com_geohot_towelroot_TowelRoot_rootTheShit+0xed4>
    3d34:	e300076e 	movw	r0, #1902	; 0x76e
    3d38:	e3400bf6 	movt	r0, #3062	; 0xbf6
    3d3c:	e1510000 	cmp	r1, r0
    3d40:	1a0006ef 	bne	5904 <Java_com_geohot_towelroot_TowelRoot_rootTheShit+0x4794>
    3d44:	e51b0024 	ldr	r0, [fp, #-36]	; 0x24
    3d48:	e24bea02 	sub	lr, fp, #8192	; 0x2000
    3d4c:	e5961024 	ldr	r1, [r6, #36]	; 0x24
    3d50:	e5810000 	str	r0, [r1]
    3d54:	e3a00001 	mov	r0, #1
    3d58:	e51e1108 	ldr	r1, [lr, #-264]	; 0x108
    3d5c:	e5810000 	str	r0, [r1]
    3d60:	e3030b04 	movw	r0, #15108	; 0x3b04
    3d64:	e3400ae9 	movt	r0, #2793	; 0xae9
    3d68:	ea0006cf 	b	58ac <Java_com_geohot_towelroot_TowelRoot_rootTheShit+0x473c>
    3d6c:	e30a1e9d 	movw	r1, #44701	; 0xae9d
    3d70:	e3411c0c 	movt	r1, #7180	; 0x1c0c
    3d74:	e1500001 	cmp	r0, r1
    3d78:	ca000026 	bgt	3e18 <Java_com_geohot_towelroot_TowelRoot_rootTheShit+0x2ca8>
    3d7c:	e30d1324 	movw	r1, #54052	; 0xd324
    3d80:	e3a0c000 	mov	ip, #0
    3d84:	e3411ae6 	movt	r1, #6886	; 0x1ae6
    3d88:	e1500001 	cmp	r0, r1
    3d8c:	e3091e8e 	movw	r1, #40590	; 0x9e8e
    3d90:	e3491438 	movt	r1, #37944	; 0x9438
    3d94:	e1a03001 	mov	r3, r1
    3d98:	e3081e01 	movw	r1, #36353	; 0x8e01
    3d9c:	e3471f2b 	movt	r1, #32555	; 0x7f2b
    3da0:	e1a02001 	mov	r2, r1
    3da4:	e30b1e56 	movw	r1, #48726	; 0xbe56
    3da8:	e3471fa7 	movt	r1, #32679	; 0x7fa7
    3dac:	e1a0e001 	mov	lr, r1
    3db0:	1afff8a3 	bne	2044 <Java_com_geohot_towelroot_TowelRoot_rootTheShit+0xed4>
    3db4:	e24bea02 	sub	lr, fp, #8192	; 0x2000
    3db8:	e59f0fb4 	ldr	r0, [pc, #4020]	; 4d74 <Java_com_geohot_towelroot_TowelRoot_rootTheShit+0x3c04>
    3dbc:	e51e111c 	ldr	r1, [lr, #-284]	; 0x11c
    3dc0:	e24bea02 	sub	lr, fp, #8192	; 0x2000
    3dc4:	e7900001 	ldr	r0, [r0, r1]
    3dc8:	e51e111c 	ldr	r1, [lr, #-284]	; 0x11c
    3dcc:	e24bea01 	sub	lr, fp, #4096	; 0x1000
    3dd0:	e5902000 	ldr	r2, [r0]
    3dd4:	e59f0fec 	ldr	r0, [pc, #4076]	; 4dc8 <Java_com_geohot_towelroot_TowelRoot_rootTheShit+0x3c58>
    3dd8:	e0801001 	add	r1, r0, r1
    3ddc:	e24e0028 	sub	r0, lr, #40	; 0x28
    3de0:	ebfff482 	bl	ff0 <Java_com_geohot_towelroot_TowelRoot_rootTheShit-0x180>
    3de4:	e24bea02 	sub	lr, fp, #8192	; 0x2000
    3de8:	e59f0fdc 	ldr	r0, [pc, #4060]	; 4dcc <Java_com_geohot_towelroot_TowelRoot_rootTheShit+0x3c5c>
    3dec:	e51e111c 	ldr	r1, [lr, #-284]	; 0x11c
    3df0:	e24bea01 	sub	lr, fp, #4096	; 0x1000
    3df4:	e0801001 	add	r1, r0, r1
    3df8:	e24e0028 	sub	r0, lr, #40	; 0x28
    3dfc:	ebfff47e 	bl	ffc <Java_com_geohot_towelroot_TowelRoot_rootTheShit-0x174>
    3e00:	e24bea02 	sub	lr, fp, #8192	; 0x2000
    3e04:	e305144c 	movw	r1, #21580	; 0x544c
    3e08:	e50b0028 	str	r0, [fp, #-40]	; 0x28
    3e0c:	e3401801 	movt	r1, #2049	; 0x801
    3e10:	e50e0170 	str	r0, [lr, #-368]	; 0x170
    3e14:	ea00001f 	b	3e98 <Java_com_geohot_towelroot_TowelRoot_rootTheShit+0x2d28>
    3e18:	e30910f1 	movw	r1, #37105	; 0x90f1
    3e1c:	e3411c42 	movt	r1, #7234	; 0x1c42
    3e20:	e1500001 	cmp	r0, r1
    3e24:	ca000054 	bgt	3f7c <Java_com_geohot_towelroot_TowelRoot_rootTheShit+0x2e0c>
    3e28:	e30a1e9e 	movw	r1, #44702	; 0xae9e
    3e2c:	e3a0c000 	mov	ip, #0
    3e30:	e3411c0c 	movt	r1, #7180	; 0x1c0c
    3e34:	e1500001 	cmp	r0, r1
    3e38:	e3091e8e 	movw	r1, #40590	; 0x9e8e
    3e3c:	e3491438 	movt	r1, #37944	; 0x9438
    3e40:	e1a03001 	mov	r3, r1
    3e44:	e3081e01 	movw	r1, #36353	; 0x8e01
    3e48:	e3471f2b 	movt	r1, #32555	; 0x7f2b
    3e4c:	e1a02001 	mov	r2, r1
    3e50:	e30b1e56 	movw	r1, #48726	; 0xbe56
    3e54:	e3471fa7 	movt	r1, #32679	; 0x7fa7
    3e58:	e1a0e001 	mov	lr, r1
    3e5c:	1afff878 	bne	2044 <Java_com_geohot_towelroot_TowelRoot_rootTheShit+0xed4>
    3e60:	e30900f2 	movw	r0, #37106	; 0x90f2
    3e64:	e3410c42 	movt	r0, #7234	; 0x1c42
    3e68:	eafff875 	b	2044 <Java_com_geohot_towelroot_TowelRoot_rootTheShit+0xed4>
    3e6c:	e300176e 	movw	r1, #1902	; 0x76e
    3e70:	e50b0024 	str	r0, [fp, #-36]	; 0x24
    3e74:	e3401bf6 	movt	r1, #3062	; 0xbf6
    3e78:	ea000006 	b	3e98 <Java_com_geohot_towelroot_TowelRoot_rootTheShit+0x2d28>
    3e7c:	e3052fd9 	movw	r2, #24537	; 0x5fd9
    3e80:	e3e00000 	mvn	r0, #0
    3e84:	e3452c66 	movt	r2, #23654	; 0x5c66
    3e88:	e1510002 	cmp	r1, r2
    3e8c:	e303189c 	movw	r1, #14492	; 0x389c
    3e90:	e34a15fa 	movt	r1, #42490	; 0xa5fa
    3e94:	1a00069b 	bne	5908 <Java_com_geohot_towelroot_TowelRoot_rootTheShit+0x4798>
    3e98:	e305244b 	movw	r2, #21579	; 0x544b
    3e9c:	e3402801 	movt	r2, #2049	; 0x801
    3ea0:	e1510002 	cmp	r1, r2
    3ea4:	ca000007 	bgt	3ec8 <Java_com_geohot_towelroot_TowelRoot_rootTheShit+0x2d58>
    3ea8:	e30b2936 	movw	r2, #47414	; 0xb936
    3eac:	e303389c 	movw	r3, #14492	; 0x389c
    3eb0:	e34227b0 	movt	r2, #10160	; 0x27b0
    3eb4:	e34a35fa 	movt	r3, #42490	; 0xa5fa
    3eb8:	e1510003 	cmp	r1, r3
    3ebc:	e1a01002 	mov	r1, r2
    3ec0:	0afffff4 	beq	3e98 <Java_com_geohot_towelroot_TowelRoot_rootTheShit+0x2d28>
    3ec4:	ea00068f 	b	5908 <Java_com_geohot_towelroot_TowelRoot_rootTheShit+0x4798>
    3ec8:	e3052fd8 	movw	r2, #24536	; 0x5fd8
    3ecc:	e3452c66 	movt	r2, #23654	; 0x5c66
    3ed0:	e1510002 	cmp	r1, r2
    3ed4:	caffffe8 	bgt	3e7c <Java_com_geohot_towelroot_TowelRoot_rootTheShit+0x2d0c>
    3ed8:	e305208d 	movw	r2, #20621	; 0x508d
    3edc:	e3442d5c 	movt	r2, #19804	; 0x4d5c
    3ee0:	e1510002 	cmp	r1, r2
    3ee4:	ca000008 	bgt	3f0c <Java_com_geohot_towelroot_TowelRoot_rootTheShit+0x2d9c>
    3ee8:	e305244c 	movw	r2, #21580	; 0x544c
    3eec:	e3402801 	movt	r2, #2049	; 0x801
    3ef0:	e1510002 	cmp	r1, r2
    3ef4:	0a000019 	beq	3f60 <Java_com_geohot_towelroot_TowelRoot_rootTheShit+0x2df0>
    3ef8:	e30b2936 	movw	r2, #47414	; 0xb936
    3efc:	e34227b0 	movt	r2, #10160	; 0x27b0
    3f00:	e1510002 	cmp	r1, r2
    3f04:	0affffd8 	beq	3e6c <Java_com_geohot_towelroot_TowelRoot_rootTheShit+0x2cfc>
    3f08:	ea00002e 	b	3fc8 <Java_com_geohot_towelroot_TowelRoot_rootTheShit+0x2e58>
    3f0c:	e305008e 	movw	r0, #20622	; 0x508e
    3f10:	e3440d5c 	movt	r0, #19804	; 0x4d5c
    3f14:	e1510000 	cmp	r1, r0
    3f18:	1a00067a 	bne	5908 <Java_com_geohot_towelroot_TowelRoot_rootTheShit+0x4798>
    3f1c:	e24bea02 	sub	lr, fp, #8192	; 0x2000
    3f20:	e3a01001 	mov	r1, #1
    3f24:	e24e0028 	sub	r0, lr, #40	; 0x28
    3f28:	e24bea02 	sub	lr, fp, #8192	; 0x2000
    3f2c:	e3a02a01 	mov	r2, #4096	; 0x1000
    3f30:	e51e3170 	ldr	r3, [lr, #-368]	; 0x170
    3f34:	ebfff433 	bl	1008 <Java_com_geohot_towelroot_TowelRoot_rootTheShit-0x168>
    3f38:	e24bea02 	sub	lr, fp, #8192	; 0x2000
    3f3c:	e24e0028 	sub	r0, lr, #40	; 0x28
    3f40:	e24bea02 	sub	lr, fp, #8192	; 0x2000
    3f44:	e51e1124 	ldr	r1, [lr, #-292]	; 0x124
    3f48:	ebfff431 	bl	1014 <Java_com_geohot_towelroot_TowelRoot_rootTheShit-0x15c>
    3f4c:	e2800019 	add	r0, r0, #25
    3f50:	ebfff432 	bl	1020 <Java_com_geohot_towelroot_TowelRoot_rootTheShit-0x150>
    3f54:	e303189c 	movw	r1, #14492	; 0x389c
    3f58:	e34a15fa 	movt	r1, #42490	; 0xa5fa
    3f5c:	eaffffcd 	b	3e98 <Java_com_geohot_towelroot_TowelRoot_rootTheShit+0x2d28>
    3f60:	e51b1028 	ldr	r1, [fp, #-40]	; 0x28
    3f64:	e3510000 	cmp	r1, #0
    3f68:	e305108e 	movw	r1, #20622	; 0x508e
    3f6c:	e3441d5c 	movt	r1, #19804	; 0x4d5c
    3f70:	03051fd9 	movweq	r1, #24537	; 0x5fd9
    3f74:	03451c66 	movteq	r1, #23654	; 0x5c66
    3f78:	eaffffc6 	b	3e98 <Java_com_geohot_towelroot_TowelRoot_rootTheShit+0x2d28>
    3f7c:	e30a121c 	movw	r1, #41500	; 0xa21c
    3f80:	e3411cd6 	movt	r1, #7382	; 0x1cd6
    3f84:	e1500001 	cmp	r0, r1
    3f88:	ca00001c 	bgt	4000 <Java_com_geohot_towelroot_TowelRoot_rootTheShit+0x2e90>
    3f8c:	e30910f2 	movw	r1, #37106	; 0x90f2
    3f90:	e3a0c000 	mov	ip, #0
    3f94:	e3411c42 	movt	r1, #7234	; 0x1c42
    3f98:	e1500001 	cmp	r0, r1
    3f9c:	e3091e8e 	movw	r1, #40590	; 0x9e8e
    3fa0:	e3491438 	movt	r1, #37944	; 0x9438
    3fa4:	e1a03001 	mov	r3, r1
    3fa8:	e3081e01 	movw	r1, #36353	; 0x8e01
    3fac:	e3471f2b 	movt	r1, #32555	; 0x7f2b
    3fb0:	e1a02001 	mov	r2, r1
    3fb4:	e30b1e56 	movw	r1, #48726	; 0xbe56
    3fb8:	e3471fa7 	movt	r1, #32679	; 0x7fa7
    3fbc:	e1a0e001 	mov	lr, r1
    3fc0:	1afff81f 	bne	2044 <Java_com_geohot_towelroot_TowelRoot_rootTheShit+0xed4>
    3fc4:	ea00005f 	b	4148 <Java_com_geohot_towelroot_TowelRoot_rootTheShit+0x2fd8>
    3fc8:	e300076e 	movw	r0, #1902	; 0x76e
    3fcc:	e3400bf6 	movt	r0, #3062	; 0xbf6
    3fd0:	e1510000 	cmp	r1, r0
    3fd4:	1a00064b 	bne	5908 <Java_com_geohot_towelroot_TowelRoot_rootTheShit+0x4798>
    3fd8:	e51b0024 	ldr	r0, [fp, #-36]	; 0x24
    3fdc:	e24bea02 	sub	lr, fp, #8192	; 0x2000
    3fe0:	e5961008 	ldr	r1, [r6, #8]
    3fe4:	e5810000 	str	r0, [r1]
    3fe8:	e3a00001 	mov	r0, #1
    3fec:	e51e1120 	ldr	r1, [lr, #-288]	; 0x120
    3ff0:	e5810000 	str	r0, [r1]
    3ff4:	e30200ca 	movw	r0, #8394	; 0x20ca
    3ff8:	e34e0430 	movt	r0, #58416	; 0xe430
    3ffc:	ea00062a 	b	58ac <Java_com_geohot_towelroot_TowelRoot_rootTheShit+0x473c>
    4000:	e3041cd4 	movw	r1, #19668	; 0x4cd4
    4004:	e342109a 	movt	r1, #8346	; 0x209a
    4008:	e1500001 	cmp	r0, r1
    400c:	ca000010 	bgt	4054 <Java_com_geohot_towelroot_TowelRoot_rootTheShit+0x2ee4>
    4010:	e30a121d 	movw	r1, #41501	; 0xa21d
    4014:	e3a0c000 	mov	ip, #0
    4018:	e3411cd6 	movt	r1, #7382	; 0x1cd6
    401c:	e1500001 	cmp	r0, r1
    4020:	e3091e8e 	movw	r1, #40590	; 0x9e8e
    4024:	e3491438 	movt	r1, #37944	; 0x9438
    4028:	e1a03001 	mov	r3, r1
    402c:	e3081e01 	movw	r1, #36353	; 0x8e01
    4030:	e3471f2b 	movt	r1, #32555	; 0x7f2b
    4034:	e1a02001 	mov	r2, r1
    4038:	e30b1e56 	movw	r1, #48726	; 0xbe56
    403c:	e3471fa7 	movt	r1, #32679	; 0x7fa7
    4040:	e1a0e001 	mov	lr, r1
    4044:	1afff7fe 	bne	2044 <Java_com_geohot_towelroot_TowelRoot_rootTheShit+0xed4>
    4048:	e3020ee3 	movw	r0, #12003	; 0x2ee3
    404c:	e34b0168 	movt	r0, #45416	; 0xb168
    4050:	eafff7fb 	b	2044 <Java_com_geohot_towelroot_TowelRoot_rootTheShit+0xed4>
    4054:	e3091518 	movw	r1, #38168	; 0x9518
    4058:	e342119a 	movt	r1, #8602	; 0x219a
    405c:	e1500001 	cmp	r0, r1
    4060:	ca000023 	bgt	40f4 <Java_com_geohot_towelroot_TowelRoot_rootTheShit+0x2f84>
    4064:	e3041cd5 	movw	r1, #19669	; 0x4cd5
    4068:	e3a0c000 	mov	ip, #0
    406c:	e342109a 	movt	r1, #8346	; 0x209a
    4070:	e1500001 	cmp	r0, r1
    4074:	e3091e8e 	movw	r1, #40590	; 0x9e8e
    4078:	e3491438 	movt	r1, #37944	; 0x9438
    407c:	e1a03001 	mov	r3, r1
    4080:	e3081e01 	movw	r1, #36353	; 0x8e01
    4084:	e3471f2b 	movt	r1, #32555	; 0x7f2b
    4088:	e1a02001 	mov	r2, r1
    408c:	e30b1e56 	movw	r1, #48726	; 0xbe56
    4090:	e3471fa7 	movt	r1, #32679	; 0x7fa7
    4094:	e1a0e001 	mov	lr, r1
    4098:	1afff7e9 	bne	2044 <Java_com_geohot_towelroot_TowelRoot_rootTheShit+0xed4>
    409c:	e596001c 	ldr	r0, [r6, #28]
    40a0:	e24bea02 	sub	lr, fp, #8192	; 0x2000
    40a4:	e51e1128 	ldr	r1, [lr, #-296]	; 0x128
    40a8:	e24bea01 	sub	lr, fp, #4096	; 0x1000
    40ac:	e5902000 	ldr	r2, [r0]
    40b0:	e59f0d10 	ldr	r0, [pc, #3344]	; 4dc8 <Java_com_geohot_towelroot_TowelRoot_rootTheShit+0x3c58>
    40b4:	e0801001 	add	r1, r0, r1
    40b8:	e24e0028 	sub	r0, lr, #40	; 0x28
    40bc:	ebfff3cb 	bl	ff0 <Java_com_geohot_towelroot_TowelRoot_rootTheShit-0x180>
    40c0:	e24bea02 	sub	lr, fp, #8192	; 0x2000
    40c4:	e59f0d00 	ldr	r0, [pc, #3328]	; 4dcc <Java_com_geohot_towelroot_TowelRoot_rootTheShit+0x3c5c>
    40c8:	e51e1128 	ldr	r1, [lr, #-296]	; 0x128
    40cc:	e24bea01 	sub	lr, fp, #4096	; 0x1000
    40d0:	e0801001 	add	r1, r0, r1
    40d4:	e24e0028 	sub	r0, lr, #40	; 0x28
    40d8:	ebfff3c7 	bl	ffc <Java_com_geohot_towelroot_TowelRoot_rootTheShit-0x174>
    40dc:	e24bea02 	sub	lr, fp, #8192	; 0x2000
    40e0:	e305144c 	movw	r1, #21580	; 0x544c
    40e4:	e50b0028 	str	r0, [fp, #-40]	; 0x28
    40e8:	e3401801 	movt	r1, #2049	; 0x801
    40ec:	e50e0170 	str	r0, [lr, #-368]	; 0x170
    40f0:	ea000022 	b	4180 <Java_com_geohot_towelroot_TowelRoot_rootTheShit+0x3010>
    40f4:	e3021899 	movw	r1, #10393	; 0x2899
    40f8:	e34212c9 	movt	r1, #8905	; 0x22c9
    40fc:	e1500001 	cmp	r0, r1
    4100:	ca000057 	bgt	4264 <Java_com_geohot_towelroot_TowelRoot_rootTheShit+0x30f4>
    4104:	e3091519 	movw	r1, #38169	; 0x9519
    4108:	e3a0c000 	mov	ip, #0
    410c:	e342119a 	movt	r1, #8602	; 0x219a
    4110:	e1500001 	cmp	r0, r1
    4114:	e3091e8e 	movw	r1, #40590	; 0x9e8e
    4118:	e3491438 	movt	r1, #37944	; 0x9438
    411c:	e1a03001 	mov	r3, r1
    4120:	e3081e01 	movw	r1, #36353	; 0x8e01
    4124:	e3471f2b 	movt	r1, #32555	; 0x7f2b
    4128:	e1a02001 	mov	r2, r1
    412c:	e30b1e56 	movw	r1, #48726	; 0xbe56
    4130:	e3471fa7 	movt	r1, #32679	; 0x7fa7
    4134:	e1a0e001 	mov	lr, r1
    4138:	1afff7c1 	bne	2044 <Java_com_geohot_towelroot_TowelRoot_rootTheShit+0xed4>
    413c:	e24b1a02 	sub	r1, fp, #8192	; 0x2000
    4140:	e5110130 	ldr	r0, [r1, #-304]	; 0x130
    4144:	e5900000 	ldr	r0, [r0]
    4148:	e3000e18 	movw	r0, #3608	; 0xe18
    414c:	e3410988 	movt	r0, #6536	; 0x1988
    4150:	eafff7bb 	b	2044 <Java_com_geohot_towelroot_TowelRoot_rootTheShit+0xed4>
    4154:	e300176e 	movw	r1, #1902	; 0x76e
    4158:	e50b0024 	str	r0, [fp, #-36]	; 0x24
    415c:	e3401bf6 	movt	r1, #3062	; 0xbf6
    4160:	ea000006 	b	4180 <Java_com_geohot_towelroot_TowelRoot_rootTheShit+0x3010>
    4164:	e3052fd9 	movw	r2, #24537	; 0x5fd9
    4168:	e3e00000 	mvn	r0, #0
    416c:	e3452c66 	movt	r2, #23654	; 0x5c66
    4170:	e1510002 	cmp	r1, r2
    4174:	e303189c 	movw	r1, #14492	; 0x389c
    4178:	e34a15fa 	movt	r1, #42490	; 0xa5fa
    417c:	1a0005e2 	bne	590c <Java_com_geohot_towelroot_TowelRoot_rootTheShit+0x479c>
    4180:	e305244b 	movw	r2, #21579	; 0x544b
    4184:	e3402801 	movt	r2, #2049	; 0x801
    4188:	e1510002 	cmp	r1, r2
    418c:	ca000007 	bgt	41b0 <Java_com_geohot_towelroot_TowelRoot_rootTheShit+0x3040>
    4190:	e30b2936 	movw	r2, #47414	; 0xb936
    4194:	e303389c 	movw	r3, #14492	; 0x389c
    4198:	e34227b0 	movt	r2, #10160	; 0x27b0
    419c:	e34a35fa 	movt	r3, #42490	; 0xa5fa
    41a0:	e1510003 	cmp	r1, r3
    41a4:	e1a01002 	mov	r1, r2
    41a8:	0afffff4 	beq	4180 <Java_com_geohot_towelroot_TowelRoot_rootTheShit+0x3010>
    41ac:	ea0005d6 	b	590c <Java_com_geohot_towelroot_TowelRoot_rootTheShit+0x479c>
    41b0:	e3052fd8 	movw	r2, #24536	; 0x5fd8
    41b4:	e3452c66 	movt	r2, #23654	; 0x5c66
    41b8:	e1510002 	cmp	r1, r2
    41bc:	caffffe8 	bgt	4164 <Java_com_geohot_towelroot_TowelRoot_rootTheShit+0x2ff4>
    41c0:	e305208d 	movw	r2, #20621	; 0x508d
    41c4:	e3442d5c 	movt	r2, #19804	; 0x4d5c
    41c8:	e1510002 	cmp	r1, r2
    41cc:	ca000008 	bgt	41f4 <Java_com_geohot_towelroot_TowelRoot_rootTheShit+0x3084>
    41d0:	e305244c 	movw	r2, #21580	; 0x544c
    41d4:	e3402801 	movt	r2, #2049	; 0x801
    41d8:	e1510002 	cmp	r1, r2
    41dc:	0a000019 	beq	4248 <Java_com_geohot_towelroot_TowelRoot_rootTheShit+0x30d8>
    41e0:	e30b2936 	movw	r2, #47414	; 0xb936
    41e4:	e34227b0 	movt	r2, #10160	; 0x27b0
    41e8:	e1510002 	cmp	r1, r2
    41ec:	0affffd8 	beq	4154 <Java_com_geohot_towelroot_TowelRoot_rootTheShit+0x2fe4>
    41f0:	ea000035 	b	42cc <Java_com_geohot_towelroot_TowelRoot_rootTheShit+0x315c>
    41f4:	e305008e 	movw	r0, #20622	; 0x508e
    41f8:	e3440d5c 	movt	r0, #19804	; 0x4d5c
    41fc:	e1510000 	cmp	r1, r0
    4200:	1a0005c1 	bne	590c <Java_com_geohot_towelroot_TowelRoot_rootTheShit+0x479c>
    4204:	e24bea02 	sub	lr, fp, #8192	; 0x2000
    4208:	e3a01001 	mov	r1, #1
    420c:	e24e0028 	sub	r0, lr, #40	; 0x28
    4210:	e24bea02 	sub	lr, fp, #8192	; 0x2000
    4214:	e3a02a01 	mov	r2, #4096	; 0x1000
    4218:	e51e3170 	ldr	r3, [lr, #-368]	; 0x170
    421c:	ebfff379 	bl	1008 <Java_com_geohot_towelroot_TowelRoot_rootTheShit-0x168>
    4220:	e24bea02 	sub	lr, fp, #8192	; 0x2000
    4224:	e24e0028 	sub	r0, lr, #40	; 0x28
    4228:	e24bea02 	sub	lr, fp, #8192	; 0x2000
    422c:	e51e112c 	ldr	r1, [lr, #-300]	; 0x12c
    4230:	ebfff377 	bl	1014 <Java_com_geohot_towelroot_TowelRoot_rootTheShit-0x15c>
    4234:	e2800019 	add	r0, r0, #25
    4238:	ebfff378 	bl	1020 <Java_com_geohot_towelroot_TowelRoot_rootTheShit-0x150>
    423c:	e303189c 	movw	r1, #14492	; 0x389c
    4240:	e34a15fa 	movt	r1, #42490	; 0xa5fa
    4244:	eaffffcd 	b	4180 <Java_com_geohot_towelroot_TowelRoot_rootTheShit+0x3010>
    4248:	e51b1028 	ldr	r1, [fp, #-40]	; 0x28
    424c:	e3510000 	cmp	r1, #0
    4250:	e305108e 	movw	r1, #20622	; 0x508e
    4254:	e3441d5c 	movt	r1, #19804	; 0x4d5c
    4258:	03051fd9 	movweq	r1, #24537	; 0x5fd9
    425c:	03451c66 	movteq	r1, #23654	; 0x5c66
    4260:	eaffffc6 	b	4180 <Java_com_geohot_towelroot_TowelRoot_rootTheShit+0x3010>
    4264:	e3011caa 	movw	r1, #7338	; 0x1caa
    4268:	e342130f 	movt	r1, #8975	; 0x230f
    426c:	e1500001 	cmp	r0, r1
    4270:	ca000024 	bgt	4308 <Java_com_geohot_towelroot_TowelRoot_rootTheShit+0x3198>
    4274:	e302189a 	movw	r1, #10394	; 0x289a
    4278:	e3a0c000 	mov	ip, #0
    427c:	e34212c9 	movt	r1, #8905	; 0x22c9
    4280:	e1500001 	cmp	r0, r1
    4284:	e3091e8e 	movw	r1, #40590	; 0x9e8e
    4288:	e3491438 	movt	r1, #37944	; 0x9438
    428c:	e1a03001 	mov	r3, r1
    4290:	e3081e01 	movw	r1, #36353	; 0x8e01
    4294:	e3471f2b 	movt	r1, #32555	; 0x7f2b
    4298:	e1a02001 	mov	r2, r1
    429c:	e30b1e56 	movw	r1, #48726	; 0xbe56
    42a0:	e3471fa7 	movt	r1, #32679	; 0x7fa7
    42a4:	e1a0e001 	mov	lr, r1
    42a8:	1afff765 	bne	2044 <Java_com_geohot_towelroot_TowelRoot_rootTheShit+0xed4>
    42ac:	e5960030 	ldr	r0, [r6, #48]	; 0x30
    42b0:	e5900000 	ldr	r0, [r0]
    42b4:	e3500009 	cmp	r0, #9
    42b8:	e3060cf6 	movw	r0, #27894	; 0x6cf6
    42bc:	e3460232 	movt	r0, #25138	; 0x6232
    42c0:	b30702bc 	movwlt	r0, #29372	; 0x72bc
    42c4:	b3450d3b 	movtlt	r0, #23867	; 0x5d3b
    42c8:	eafff75d 	b	2044 <Java_com_geohot_towelroot_TowelRoot_rootTheShit+0xed4>
    42cc:	e300076e 	movw	r0, #1902	; 0x76e
    42d0:	e3400bf6 	movt	r0, #3062	; 0xbf6
    42d4:	e1510000 	cmp	r1, r0
    42d8:	1a00058b 	bne	590c <Java_com_geohot_towelroot_TowelRoot_rootTheShit+0x479c>
    42dc:	e51b0024 	ldr	r0, [fp, #-36]	; 0x24
    42e0:	e5961024 	ldr	r1, [r6, #36]	; 0x24
    42e4:	e5911000 	ldr	r1, [r1]
    42e8:	e2611000 	rsb	r1, r1, #0
    42ec:	e2611001 	rsb	r1, r1, #1
    42f0:	e1500001 	cmp	r0, r1
    42f4:	e3030fdd 	movw	r0, #16349	; 0x3fdd
    42f8:	e34b08b6 	movt	r0, #47286	; 0xb8b6
    42fc:	130e087b 	movwne	r0, #59515	; 0xe87b
    4300:	13460847 	movtne	r0, #26695	; 0x6847
    4304:	ea000568 	b	58ac <Java_com_geohot_towelroot_TowelRoot_rootTheShit+0x473c>
    4308:	e3011bb0 	movw	r1, #7088	; 0x1bb0
    430c:	e3421829 	movt	r1, #10281	; 0x2829
    4310:	e1500001 	cmp	r0, r1
    4314:	ca00002b 	bgt	43c8 <Java_com_geohot_towelroot_TowelRoot_rootTheShit+0x3258>
    4318:	e3011cab 	movw	r1, #7339	; 0x1cab
    431c:	e3a0c000 	mov	ip, #0
    4320:	e342130f 	movt	r1, #8975	; 0x230f
    4324:	e1500001 	cmp	r0, r1
    4328:	e3091e8e 	movw	r1, #40590	; 0x9e8e
    432c:	e3491438 	movt	r1, #37944	; 0x9438
    4330:	e1a03001 	mov	r3, r1
    4334:	e3081e01 	movw	r1, #36353	; 0x8e01
    4338:	e3471f2b 	movt	r1, #32555	; 0x7f2b
    433c:	e1a02001 	mov	r2, r1
    4340:	e30b1e56 	movw	r1, #48726	; 0xbe56
    4344:	e3471fa7 	movt	r1, #32679	; 0x7fa7
    4348:	e1a0e001 	mov	lr, r1
    434c:	1afff73c 	bne	2044 <Java_com_geohot_towelroot_TowelRoot_rootTheShit+0xed4>
    4350:	e5960028 	ldr	r0, [r6, #40]	; 0x28
    4354:	e24bea02 	sub	lr, fp, #8192	; 0x2000
    4358:	e5900000 	ldr	r0, [r0]
    435c:	e596102c 	ldr	r1, [r6, #44]	; 0x2c
    4360:	e5810000 	str	r0, [r1]
    4364:	e596002c 	ldr	r0, [r6, #44]	; 0x2c
    4368:	e51e2134 	ldr	r2, [lr, #-308]	; 0x134
    436c:	e24bea02 	sub	lr, fp, #8192	; 0x2000
    4370:	e59f1f84 	ldr	r1, [pc, #3972]	; 52fc <Java_com_geohot_towelroot_TowelRoot_rootTheShit+0x418c>
    4374:	e5903000 	ldr	r3, [r0]
    4378:	e3a00004 	mov	r0, #4
    437c:	e0811002 	add	r1, r1, r2
    4380:	e51e2138 	ldr	r2, [lr, #-312]	; 0x138
    4384:	ebfff2e9 	bl	f30 <Java_com_geohot_towelroot_TowelRoot_rootTheShit-0x240>
    4388:	e30b0e56 	movw	r0, #48726	; 0xbe56
    438c:	e3a0c000 	mov	ip, #0
    4390:	e3470fa7 	movt	r0, #32679	; 0x7fa7
    4394:	e3e01000 	mvn	r1, #0
    4398:	e1a0e000 	mov	lr, r0
    439c:	e3080e01 	movw	r0, #36353	; 0x8e01
    43a0:	e3470f2b 	movt	r0, #32555	; 0x7f2b
    43a4:	e1a02000 	mov	r2, r0
    43a8:	e3090e8e 	movw	r0, #40590	; 0x9e8e
    43ac:	e3490438 	movt	r0, #37944	; 0x9438
    43b0:	e1a03000 	mov	r3, r0
    43b4:	e5960030 	ldr	r0, [r6, #48]	; 0x30
    43b8:	e580c000 	str	ip, [r0]
    43bc:	e5960034 	ldr	r0, [r6, #52]	; 0x34
    43c0:	e5801000 	str	r1, [r0]
    43c4:	ea000150 	b	490c <Java_com_geohot_towelroot_TowelRoot_rootTheShit+0x379c>
    43c8:	e3041a3f 	movw	r1, #19007	; 0x4a3f
    43cc:	e3421e61 	movt	r1, #11873	; 0x2e61
    43d0:	e1500001 	cmp	r0, r1
    43d4:	ca000020 	bgt	445c <Java_com_geohot_towelroot_TowelRoot_rootTheShit+0x32ec>
    43d8:	e3011bb1 	movw	r1, #7089	; 0x1bb1
    43dc:	e3a0c000 	mov	ip, #0
    43e0:	e3421829 	movt	r1, #10281	; 0x2829
    43e4:	e1500001 	cmp	r0, r1
    43e8:	e3091e8e 	movw	r1, #40590	; 0x9e8e
    43ec:	e3491438 	movt	r1, #37944	; 0x9438
    43f0:	e1a03001 	mov	r3, r1
    43f4:	e3081e01 	movw	r1, #36353	; 0x8e01
    43f8:	e3471f2b 	movt	r1, #32555	; 0x7f2b
    43fc:	e1a02001 	mov	r2, r1
    4400:	e30b1e56 	movw	r1, #48726	; 0xbe56
    4404:	e3471fa7 	movt	r1, #32679	; 0x7fa7
    4408:	e1a0e001 	mov	lr, r1
    440c:	1afff70c 	bne	2044 <Java_com_geohot_towelroot_TowelRoot_rootTheShit+0xed4>
    4410:	e3a0000a 	mov	r0, #10
    4414:	e1a08009 	mov	r8, r9
    4418:	e1a0900a 	mov	r9, sl
    441c:	e1a0a003 	mov	sl, r3
    4420:	ebfff2ef 	bl	fe4 <Java_com_geohot_towelroot_TowelRoot_rootTheShit-0x18c>
    4424:	e30b0e56 	movw	r0, #48726	; 0xbe56
    4428:	e1a0300a 	mov	r3, sl
    442c:	e3470fa7 	movt	r0, #32679	; 0x7fa7
    4430:	e1a0a009 	mov	sl, r9
    4434:	e1a0e000 	mov	lr, r0
    4438:	e3080e01 	movw	r0, #36353	; 0x8e01
    443c:	e3470f2b 	movt	r0, #32555	; 0x7f2b
    4440:	e1a09008 	mov	r9, r8
    4444:	e1a02000 	mov	r2, r0
    4448:	e30504d5 	movw	r0, #21717	; 0x54d5
    444c:	e3480e5b 	movt	r0, #36443	; 0x8e5b
    4450:	e3a0c000 	mov	ip, #0
    4454:	e1a08000 	mov	r8, r0
    4458:	ea00009e 	b	46d8 <Java_com_geohot_towelroot_TowelRoot_rootTheShit+0x3568>
    445c:	e30e14b2 	movw	r1, #58546	; 0xe4b2
    4460:	e3431541 	movt	r1, #13633	; 0x3541
    4464:	e1500001 	cmp	r0, r1
    4468:	ca00003b 	bgt	455c <Java_com_geohot_towelroot_TowelRoot_rootTheShit+0x33ec>
    446c:	e3041a40 	movw	r1, #19008	; 0x4a40
    4470:	e3a0c000 	mov	ip, #0
    4474:	e3421e61 	movt	r1, #11873	; 0x2e61
    4478:	e1500001 	cmp	r0, r1
    447c:	e3091e8e 	movw	r1, #40590	; 0x9e8e
    4480:	e3491438 	movt	r1, #37944	; 0x9438
    4484:	e1a03001 	mov	r3, r1
    4488:	e3081e01 	movw	r1, #36353	; 0x8e01
    448c:	e3471f2b 	movt	r1, #32555	; 0x7f2b
    4490:	e1a02001 	mov	r2, r1
    4494:	e30b1e56 	movw	r1, #48726	; 0xbe56
    4498:	e3471fa7 	movt	r1, #32679	; 0x7fa7
    449c:	e1a0e001 	mov	lr, r1
    44a0:	1afff6e7 	bne	2044 <Java_com_geohot_towelroot_TowelRoot_rootTheShit+0xed4>
    44a4:	e3a00006 	mov	r0, #6
    44a8:	eb000c78 	bl	7690 <Java_com_geohot_towelroot_TowelRoot_rootTheShit+0x6520>
    44ac:	e3a00007 	mov	r0, #7
    44b0:	eb000c76 	bl	7690 <Java_com_geohot_towelroot_TowelRoot_rootTheShit+0x6520>
    44b4:	e24bea02 	sub	lr, fp, #8192	; 0x2000
    44b8:	e59f07e0 	ldr	r0, [pc, #2016]	; 4ca0 <Java_com_geohot_towelroot_TowelRoot_rootTheShit+0x3b30>
    44bc:	e51e313c 	ldr	r3, [lr, #-316]	; 0x13c
    44c0:	e790c003 	ldr	ip, [r0, r3]
    44c4:	e59f0f3c 	ldr	r0, [pc, #3900]	; 5408 <Java_com_geohot_towelroot_TowelRoot_rootTheShit+0x4298>
    44c8:	e59c1000 	ldr	r1, [ip]
    44cc:	e7902003 	ldr	r2, [r0, r3]
    44d0:	e59f0f34 	ldr	r0, [pc, #3892]	; 540c <Java_com_geohot_towelroot_TowelRoot_rootTheShit+0x429c>
    44d4:	e7903003 	ldr	r3, [r0, r3]
    44d8:	e3a00000 	mov	r0, #0
    44dc:	e5810000 	str	r0, [r1]
    44e0:	e3a00000 	mov	r0, #0
    44e4:	e5820000 	str	r0, [r2]
    44e8:	e3a00000 	mov	r0, #0
    44ec:	e5830000 	str	r0, [r3]
    44f0:	e59c1000 	ldr	r1, [ip]
    44f4:	e5910000 	ldr	r0, [r1]
    44f8:	e24dd010 	sub	sp, sp, #16
    44fc:	e3a02000 	mov	r2, #0
    4500:	e3a03001 	mov	r3, #1
    4504:	e58d2000 	str	r2, [sp]
    4508:	e3a0200c 	mov	r2, #12
    450c:	e58d1004 	str	r1, [sp, #4]
    4510:	e58d0008 	str	r0, [sp, #8]
    4514:	e3a000f0 	mov	r0, #240	; 0xf0
    4518:	ebfff2a8 	bl	fc0 <Java_com_geohot_towelroot_TowelRoot_rootTheShit-0x1b0>
    451c:	e30b1e56 	movw	r1, #48726	; 0xbe56
    4520:	e3a0c000 	mov	ip, #0
    4524:	e3471fa7 	movt	r1, #32679	; 0x7fa7
    4528:	e1a0e001 	mov	lr, r1
    452c:	e3081e01 	movw	r1, #36353	; 0x8e01
    4530:	e3471f2b 	movt	r1, #32555	; 0x7f2b
    4534:	e1a02001 	mov	r2, r1
    4538:	e3091e8e 	movw	r1, #40590	; 0x9e8e
    453c:	e3491438 	movt	r1, #37944	; 0x9438
    4540:	e1a03001 	mov	r3, r1
    4544:	e28dd010 	add	sp, sp, #16
    4548:	e5961004 	ldr	r1, [r6, #4]
    454c:	e5810000 	str	r0, [r1]
    4550:	e30a0e9e 	movw	r0, #44702	; 0xae9e
    4554:	e3410c0c 	movt	r0, #7180	; 0x1c0c
    4558:	eafff6b9 	b	2044 <Java_com_geohot_towelroot_TowelRoot_rootTheShit+0xed4>
    455c:	e3021b64 	movw	r1, #11108	; 0x2b64
    4560:	e3431998 	movt	r1, #14744	; 0x3998
    4564:	e1500001 	cmp	r0, r1
    4568:	ca000010 	bgt	45b0 <Java_com_geohot_towelroot_TowelRoot_rootTheShit+0x3440>
    456c:	e30e14b3 	movw	r1, #58547	; 0xe4b3
    4570:	e3a0c000 	mov	ip, #0
    4574:	e3431541 	movt	r1, #13633	; 0x3541
    4578:	e1500001 	cmp	r0, r1
    457c:	e3091e8e 	movw	r1, #40590	; 0x9e8e
    4580:	e3491438 	movt	r1, #37944	; 0x9438
    4584:	e1a03001 	mov	r3, r1
    4588:	e3081e01 	movw	r1, #36353	; 0x8e01
    458c:	e3471f2b 	movt	r1, #32555	; 0x7f2b
    4590:	e1a02001 	mov	r2, r1
    4594:	e30b1e56 	movw	r1, #48726	; 0xbe56
    4598:	e3471fa7 	movt	r1, #32679	; 0x7fa7
    459c:	e1a0e001 	mov	lr, r1
    45a0:	1afff6a7 	bne	2044 <Java_com_geohot_towelroot_TowelRoot_rootTheShit+0xed4>
    45a4:	e3010c6c 	movw	r0, #7276	; 0x1c6c
    45a8:	e34c06ff 	movt	r0, #50943	; 0xc6ff
    45ac:	eafff6a4 	b	2044 <Java_com_geohot_towelroot_TowelRoot_rootTheShit+0xed4>
    45b0:	e30d1536 	movw	r1, #54582	; 0xd536
    45b4:	e3431ed1 	movt	r1, #16081	; 0x3ed1
    45b8:	e1500001 	cmp	r0, r1
    45bc:	ca000033 	bgt	4690 <Java_com_geohot_towelroot_TowelRoot_rootTheShit+0x3520>
    45c0:	e3021b65 	movw	r1, #11109	; 0x2b65
    45c4:	e3a0c000 	mov	ip, #0
    45c8:	e3431998 	movt	r1, #14744	; 0x3998
    45cc:	e1500001 	cmp	r0, r1
    45d0:	e3091e8e 	movw	r1, #40590	; 0x9e8e
    45d4:	e3491438 	movt	r1, #37944	; 0x9438
    45d8:	e1a03001 	mov	r3, r1
    45dc:	e3081e01 	movw	r1, #36353	; 0x8e01
    45e0:	e3471f2b 	movt	r1, #32555	; 0x7f2b
    45e4:	e1a02001 	mov	r2, r1
    45e8:	e30b1e56 	movw	r1, #48726	; 0xbe56
    45ec:	e3471fa7 	movt	r1, #32679	; 0x7fa7
    45f0:	e1a0e001 	mov	lr, r1
    45f4:	1afff692 	bne	2044 <Java_com_geohot_towelroot_TowelRoot_rootTheShit+0xed4>
    45f8:	e24bea02 	sub	lr, fp, #8192	; 0x2000
    45fc:	e5960020 	ldr	r0, [r6, #32]
    4600:	e51e1140 	ldr	r1, [lr, #-320]	; 0x140
    4604:	e24bea02 	sub	lr, fp, #8192	; 0x2000
    4608:	e5900000 	ldr	r0, [r0]
    460c:	e50e018c 	str	r0, [lr, #-396]	; 0x18c
    4610:	e24bea02 	sub	lr, fp, #8192	; 0x2000
    4614:	e5911000 	ldr	r1, [r1]
    4618:	e591000c 	ldr	r0, [r1, #12]
    461c:	e50e0190 	str	r0, [lr, #-400]	; 0x190
    4620:	e24bea02 	sub	lr, fp, #8192	; 0x2000
    4624:	e5960028 	ldr	r0, [r6, #40]	; 0x28
    4628:	e50e0188 	str	r0, [lr, #-392]	; 0x188
    462c:	e24dd008 	sub	sp, sp, #8
    4630:	e3e00000 	mvn	r0, #0
    4634:	e3a01a02 	mov	r1, #8192	; 0x2000
    4638:	e88d1001 	stm	sp, {r0, ip}
    463c:	e30f0000 	movw	r0, #61440	; 0xf000
    4640:	e34000be 	movt	r0, #190	; 0xbe
    4644:	e3a02007 	mov	r2, #7
    4648:	e3a03031 	mov	r3, #49	; 0x31
    464c:	ebfff243 	bl	f60 <Java_com_geohot_towelroot_TowelRoot_rootTheShit-0x210>
    4650:	e28dd008 	add	sp, sp, #8
    4654:	e50b0024 	str	r0, [fp, #-36]	; 0x24
    4658:	e30f0000 	movw	r0, #61440	; 0xf000
    465c:	e24bea02 	sub	lr, fp, #8192	; 0x2000
    4660:	e34000be 	movt	r0, #190	; 0xbe
    4664:	e5860040 	str	r0, [r6, #64]	; 0x40
    4668:	e30a27b0 	movw	r2, #42928	; 0xa7b0
    466c:	e51e018c 	ldr	r0, [lr, #-396]	; 0x18c
    4670:	e24bea02 	sub	lr, fp, #8192	; 0x2000
    4674:	e34b28c6 	movt	r2, #47302	; 0xb8c6
    4678:	e51e1190 	ldr	r1, [lr, #-400]	; 0x190
    467c:	e24bea02 	sub	lr, fp, #8192	; 0x2000
    4680:	e0800001 	add	r0, r0, r1
    4684:	e2800001 	add	r0, r0, #1
    4688:	e50e0178 	str	r0, [lr, #-376]	; 0x178
    468c:	ea00002d 	b	4748 <Java_com_geohot_towelroot_TowelRoot_rootTheShit+0x35d8>
    4690:	e303108a 	movw	r1, #12426	; 0x308a
    4694:	e3441023 	movt	r1, #16419	; 0x4023
    4698:	e1500001 	cmp	r0, r1
    469c:	ca000083 	bgt	48b0 <Java_com_geohot_towelroot_TowelRoot_rootTheShit+0x3740>
    46a0:	e30d1537 	movw	r1, #54583	; 0xd537
    46a4:	e3a0c000 	mov	ip, #0
    46a8:	e3431ed1 	movt	r1, #16081	; 0x3ed1
    46ac:	e1500001 	cmp	r0, r1
    46b0:	e3091e8e 	movw	r1, #40590	; 0x9e8e
    46b4:	e3491438 	movt	r1, #37944	; 0x9438
    46b8:	e1a03001 	mov	r3, r1
    46bc:	e3081e01 	movw	r1, #36353	; 0x8e01
    46c0:	e3471f2b 	movt	r1, #32555	; 0x7f2b
    46c4:	e1a02001 	mov	r2, r1
    46c8:	e30b1e56 	movw	r1, #48726	; 0xbe56
    46cc:	e3471fa7 	movt	r1, #32679	; 0x7fa7
    46d0:	e1a0e001 	mov	lr, r1
    46d4:	1afff65a 	bne	2044 <Java_com_geohot_towelroot_TowelRoot_rootTheShit+0xed4>
    46d8:	e30b0a0c 	movw	r0, #47628	; 0xba0c
    46dc:	e3450e10 	movt	r0, #24080	; 0x5e10
    46e0:	eafff657 	b	2044 <Java_com_geohot_towelroot_TowelRoot_rootTheShit+0xed4>
    46e4:	e24bea02 	sub	lr, fp, #8192	; 0x2000
    46e8:	e3001004 	movw	r1, #4
    46ec:	e34010bf 	movt	r1, #191	; 0xbf
    46f0:	e51e0178 	ldr	r0, [lr, #-376]	; 0x178
    46f4:	e24bea02 	sub	lr, fp, #8192	; 0x2000
    46f8:	e5810000 	str	r0, [r1]
    46fc:	e3a018bf 	mov	r1, #12517376	; 0xbf0000
    4700:	e51e0144 	ldr	r0, [lr, #-324]	; 0x144
    4704:	e5900000 	ldr	r0, [r0]
    4708:	e5801000 	str	r1, [r0]
    470c:	e3a0000a 	mov	r0, #10
    4710:	eb000bde 	bl	7690 <Java_com_geohot_towelroot_TowelRoot_rootTheShit+0x6520>
    4714:	e24bea02 	sub	lr, fp, #8192	; 0x2000
    4718:	e3000004 	movw	r0, #4
    471c:	e34000bf 	movt	r0, #191	; 0xbf
    4720:	e51e1188 	ldr	r1, [lr, #-392]	; 0x188
    4724:	e5900000 	ldr	r0, [r0]
    4728:	e5810000 	str	r0, [r1]
    472c:	e30f0000 	movw	r0, #61440	; 0xf000
    4730:	e34000be 	movt	r0, #190	; 0xbe
    4734:	e3a01a02 	mov	r1, #8192	; 0x2000
    4738:	ebfff244 	bl	1050 <Java_com_geohot_towelroot_TowelRoot_rootTheShit-0x120>
    473c:	e30e2f6a 	movw	r2, #61290	; 0xef6a
    4740:	e3a03000 	mov	r3, #0
    4744:	e34a255f 	movt	r2, #42335	; 0xa55f
    4748:	e1a0e003 	mov	lr, r3
    474c:	e1a0c002 	mov	ip, r2
    4750:	ea000007 	b	4774 <Java_com_geohot_towelroot_TowelRoot_rootTheShit+0x3604>
    4754:	e30d06ff 	movw	r0, #55039	; 0xd6ff
    4758:	e51b1024 	ldr	r1, [fp, #-36]	; 0x24
    475c:	e5962040 	ldr	r2, [r6, #64]	; 0x40
    4760:	e34800bb 	movt	r0, #32955	; 0x80bb
    4764:	e1a0c000 	mov	ip, r0
    4768:	e1510002 	cmp	r1, r2
    476c:	1300c98e 	movwne	ip, #2446	; 0x98e
    4770:	134bc2e5 	movtne	ip, #45797	; 0xb2e5
    4774:	e3092fc5 	movw	r2, #40901	; 0x9fc5
    4778:	e1a0100c 	mov	r1, ip
    477c:	e3462d79 	movt	r2, #28025	; 0x6d79
    4780:	e1510002 	cmp	r1, r2
    4784:	ca000011 	bgt	47d0 <Java_com_geohot_towelroot_TowelRoot_rootTheShit+0x3660>
    4788:	e309cfc6 	movw	ip, #40902	; 0x9fc6
    478c:	e30b2e70 	movw	r2, #48752	; 0xbe70
    4790:	e30d06ff 	movw	r0, #55039	; 0xd6ff
    4794:	e346cd79 	movt	ip, #28025	; 0x6d79
    4798:	e349290d 	movt	r2, #39181	; 0x990d
    479c:	e3e03000 	mvn	r3, #0
    47a0:	e34800bb 	movt	r0, #32955	; 0x80bb
    47a4:	e1510000 	cmp	r1, r0
    47a8:	0afffff1 	beq	4774 <Java_com_geohot_towelroot_TowelRoot_rootTheShit+0x3604>
    47ac:	e30a07b0 	movw	r0, #42928	; 0xa7b0
    47b0:	e34b08c6 	movt	r0, #47302	; 0xb8c6
    47b4:	e1510000 	cmp	r1, r0
    47b8:	0affffe5 	beq	4754 <Java_com_geohot_towelroot_TowelRoot_rootTheShit+0x35e4>
    47bc:	e300098e 	movw	r0, #2446	; 0x98e
    47c0:	e34b02e5 	movt	r0, #45797	; 0xb2e5
    47c4:	e1510000 	cmp	r1, r0
    47c8:	1a000004 	bne	47e0 <Java_com_geohot_towelroot_TowelRoot_rootTheShit+0x3670>
    47cc:	eaffffdd 	b	4748 <Java_com_geohot_towelroot_TowelRoot_rootTheShit+0x35d8>
    47d0:	e3090fc6 	movw	r0, #40902	; 0x9fc6
    47d4:	e3460d79 	movt	r0, #28025	; 0x6d79
    47d8:	e1510000 	cmp	r1, r0
    47dc:	0a000006 	beq	47fc <Java_com_geohot_towelroot_TowelRoot_rootTheShit+0x368c>
    47e0:	e30bce70 	movw	ip, #48752	; 0xbe70
    47e4:	e30e0f6a 	movw	r0, #61290	; 0xef6a
    47e8:	e349c90d 	movt	ip, #39181	; 0x990d
    47ec:	e34a055f 	movt	r0, #42335	; 0xa55f
    47f0:	e1510000 	cmp	r1, r0
    47f4:	0affffde 	beq	4774 <Java_com_geohot_towelroot_TowelRoot_rootTheShit+0x3604>
    47f8:	ea000046 	b	4918 <Java_com_geohot_towelroot_TowelRoot_rootTheShit+0x37a8>
    47fc:	e307051c 	movw	r0, #29980	; 0x751c
    4800:	e34604a8 	movt	r0, #25768	; 0x64a8
    4804:	ea000019 	b	4870 <Java_com_geohot_towelroot_TowelRoot_rootTheShit+0x3700>
    4808:	e30f1fdc 	movw	r1, #65500	; 0xffdc
    480c:	e3a00081 	mov	r0, #129	; 0x81
    4810:	e34010be 	movt	r1, #190	; 0xbe
    4814:	e30f3ffc 	movw	r3, #65532	; 0xfffc
    4818:	e5810000 	str	r0, [r1]
    481c:	e30f1fe0 	movw	r1, #65504	; 0xffe0
    4820:	e3a008bf 	mov	r0, #12517376	; 0xbf0000
    4824:	e34010be 	movt	r1, #190	; 0xbe
    4828:	e5810000 	str	r0, [r1]
    482c:	e30f0fe8 	movw	r0, #65512	; 0xffe8
    4830:	e34000be 	movt	r0, #190	; 0xbe
    4834:	e34030be 	movt	r3, #190	; 0xbe
    4838:	e1a02000 	mov	r2, r0
    483c:	e3000008 	movw	r0, #8
    4840:	e34000bf 	movt	r0, #191	; 0xbf
    4844:	e5820000 	str	r0, [r2]
    4848:	e3a00085 	mov	r0, #133	; 0x85
    484c:	e5830000 	str	r0, [r3]
    4850:	e3000004 	movw	r0, #4
    4854:	e34000bf 	movt	r0, #191	; 0xbf
    4858:	e5801000 	str	r1, [r0]
    485c:	e300000c 	movw	r0, #12
    4860:	e34000bf 	movt	r0, #191	; 0xbf
    4864:	e5802000 	str	r2, [r0]
    4868:	e305018e 	movw	r0, #20878	; 0x518e
    486c:	e3430068 	movt	r0, #12392	; 0x3068
    4870:	e1a01000 	mov	r1, r0
    4874:	e305018e 	movw	r0, #20878	; 0x518e
    4878:	e3430068 	movt	r0, #12392	; 0x3068
    487c:	e1510000 	cmp	r1, r0
    4880:	0affff97 	beq	46e4 <Java_com_geohot_towelroot_TowelRoot_rootTheShit+0x3574>
    4884:	e304086e 	movw	r0, #18542	; 0x486e
    4888:	e307251c 	movw	r2, #29980	; 0x751c
    488c:	e34e0360 	movt	r0, #58208	; 0xe360
    4890:	e34624a8 	movt	r2, #25768	; 0x64a8
    4894:	e1510002 	cmp	r1, r2
    4898:	0afffff4 	beq	4870 <Java_com_geohot_towelroot_TowelRoot_rootTheShit+0x3700>
    489c:	e304086e 	movw	r0, #18542	; 0x486e
    48a0:	e34e0360 	movt	r0, #58208	; 0xe360
    48a4:	e1510000 	cmp	r1, r0
    48a8:	0affffd6 	beq	4808 <Java_com_geohot_towelroot_TowelRoot_rootTheShit+0x3698>
    48ac:	ea000417 	b	5910 <Java_com_geohot_towelroot_TowelRoot_rootTheShit+0x47a0>
    48b0:	e30d1c6c 	movw	r1, #56428	; 0xdc6c
    48b4:	e3441051 	movt	r1, #16465	; 0x4051
    48b8:	e1500001 	cmp	r0, r1
    48bc:	ca00001f 	bgt	4940 <Java_com_geohot_towelroot_TowelRoot_rootTheShit+0x37d0>
    48c0:	e303108b 	movw	r1, #12427	; 0x308b
    48c4:	e3a0c000 	mov	ip, #0
    48c8:	e3441023 	movt	r1, #16419	; 0x4023
    48cc:	e1500001 	cmp	r0, r1
    48d0:	e3091e8e 	movw	r1, #40590	; 0x9e8e
    48d4:	e3491438 	movt	r1, #37944	; 0x9438
    48d8:	e1a03001 	mov	r3, r1
    48dc:	e3081e01 	movw	r1, #36353	; 0x8e01
    48e0:	e3471f2b 	movt	r1, #32555	; 0x7f2b
    48e4:	e1a02001 	mov	r2, r1
    48e8:	e30b1e56 	movw	r1, #48726	; 0xbe56
    48ec:	e3471fa7 	movt	r1, #32679	; 0x7fa7
    48f0:	e1a0e001 	mov	lr, r1
    48f4:	1afff5d2 	bne	2044 <Java_com_geohot_towelroot_TowelRoot_rootTheShit+0xed4>
    48f8:	e5960030 	ldr	r0, [r6, #48]	; 0x30
    48fc:	e5900000 	ldr	r0, [r0]
    4900:	e5961030 	ldr	r1, [r6, #48]	; 0x30
    4904:	e2800001 	add	r0, r0, #1
    4908:	e5810000 	str	r0, [r1]
    490c:	e302089a 	movw	r0, #10394	; 0x289a
    4910:	e34202c9 	movt	r0, #8905	; 0x22c9
    4914:	eafff5ca 	b	2044 <Java_com_geohot_towelroot_TowelRoot_rootTheShit+0xed4>
    4918:	e30b0e70 	movw	r0, #48752	; 0xbe70
    491c:	e349090d 	movt	r0, #39181	; 0x990d
    4920:	e1510000 	cmp	r1, r0
    4924:	1a0003fa 	bne	5914 <Java_com_geohot_towelroot_TowelRoot_rootTheShit+0x47a4>
    4928:	e30d0b7f 	movw	r0, #56191	; 0xdb7f
    492c:	e35e0000 	cmp	lr, #0
    4930:	e34b05e9 	movt	r0, #46569	; 0xb5e9
    4934:	130904af 	movwne	r0, #38063	; 0x94af
    4938:	13440286 	movtne	r0, #17030	; 0x4286
    493c:	ea0003da 	b	58ac <Java_com_geohot_towelroot_TowelRoot_rootTheShit+0x473c>
    4940:	e30914ae 	movw	r1, #38062	; 0x94ae
    4944:	e3441286 	movt	r1, #17030	; 0x4286
    4948:	e1500001 	cmp	r0, r1
    494c:	ca000010 	bgt	4994 <Java_com_geohot_towelroot_TowelRoot_rootTheShit+0x3824>
    4950:	e30d1c6d 	movw	r1, #56429	; 0xdc6d
    4954:	e3a0c000 	mov	ip, #0
    4958:	e3441051 	movt	r1, #16465	; 0x4051
    495c:	e1500001 	cmp	r0, r1
    4960:	e3091e8e 	movw	r1, #40590	; 0x9e8e
    4964:	e3491438 	movt	r1, #37944	; 0x9438
    4968:	e1a03001 	mov	r3, r1
    496c:	e3081e01 	movw	r1, #36353	; 0x8e01
    4970:	e3471f2b 	movt	r1, #32555	; 0x7f2b
    4974:	e1a02001 	mov	r2, r1
    4978:	e30b1e56 	movw	r1, #48726	; 0xbe56
    497c:	e3471fa7 	movt	r1, #32679	; 0x7fa7
    4980:	e1a0e001 	mov	lr, r1
    4984:	1afff5ae 	bne	2044 <Java_com_geohot_towelroot_TowelRoot_rootTheShit+0xed4>
    4988:	e3060e61 	movw	r0, #28257	; 0x6e61
    498c:	e34f028a 	movt	r0, #62090	; 0xf28a
    4990:	eafff5ab 	b	2044 <Java_com_geohot_towelroot_TowelRoot_rootTheShit+0xed4>
    4994:	e3091524 	movw	r1, #38180	; 0x9524
    4998:	e344171b 	movt	r1, #18203	; 0x471b
    499c:	e1500001 	cmp	r0, r1
    49a0:	ca00000e 	bgt	49e0 <Java_com_geohot_towelroot_TowelRoot_rootTheShit+0x3870>
    49a4:	e30914af 	movw	r1, #38063	; 0x94af
    49a8:	e3a0c000 	mov	ip, #0
    49ac:	e3441286 	movt	r1, #17030	; 0x4286
    49b0:	e1500001 	cmp	r0, r1
    49b4:	e3091e8e 	movw	r1, #40590	; 0x9e8e
    49b8:	e3491438 	movt	r1, #37944	; 0x9438
    49bc:	e1a03001 	mov	r3, r1
    49c0:	e3081e01 	movw	r1, #36353	; 0x8e01
    49c4:	e3471f2b 	movt	r1, #32555	; 0x7f2b
    49c8:	e1a02001 	mov	r2, r1
    49cc:	e30b1e56 	movw	r1, #48726	; 0xbe56
    49d0:	e3471fa7 	movt	r1, #32679	; 0x7fa7
    49d4:	e1a0e001 	mov	lr, r1
    49d8:	1afff599 	bne	2044 <Java_com_geohot_towelroot_TowelRoot_rootTheShit+0xed4>
    49dc:	ea000317 	b	5640 <Java_com_geohot_towelroot_TowelRoot_rootTheShit+0x44d0>
    49e0:	e3071f13 	movw	r1, #32531	; 0x7f13
    49e4:	e3441945 	movt	r1, #18757	; 0x4945
    49e8:	e1500001 	cmp	r0, r1
    49ec:	ca000010 	bgt	4a34 <Java_com_geohot_towelroot_TowelRoot_rootTheShit+0x38c4>
    49f0:	e3091525 	movw	r1, #38181	; 0x9525
    49f4:	e3a0c000 	mov	ip, #0
    49f8:	e344171b 	movt	r1, #18203	; 0x471b
    49fc:	e1500001 	cmp	r0, r1
    4a00:	e3091e8e 	movw	r1, #40590	; 0x9e8e
    4a04:	e3491438 	movt	r1, #37944	; 0x9438
    4a08:	e1a03001 	mov	r3, r1
    4a0c:	e3081e01 	movw	r1, #36353	; 0x8e01
    4a10:	e3471f2b 	movt	r1, #32555	; 0x7f2b
    4a14:	e1a02001 	mov	r2, r1
    4a18:	e30b1e56 	movw	r1, #48726	; 0xbe56
    4a1c:	e3471fa7 	movt	r1, #32679	; 0x7fa7
    4a20:	e1a0e001 	mov	lr, r1
    4a24:	1afff586 	bne	2044 <Java_com_geohot_towelroot_TowelRoot_rootTheShit+0xed4>
    4a28:	e30c06a0 	movw	r0, #50848	; 0xc6a0
    4a2c:	e34c088d 	movt	r0, #51341	; 0xc88d
    4a30:	eafff583 	b	2044 <Java_com_geohot_towelroot_TowelRoot_rootTheShit+0xed4>
    4a34:	e30416d9 	movw	r1, #18137	; 0x46d9
    4a38:	e3441eb0 	movt	r1, #20144	; 0x4eb0
    4a3c:	e1500001 	cmp	r0, r1
    4a40:	ca000010 	bgt	4a88 <Java_com_geohot_towelroot_TowelRoot_rootTheShit+0x3918>
    4a44:	e3071f14 	movw	r1, #32532	; 0x7f14
    4a48:	e3a0c000 	mov	ip, #0
    4a4c:	e3441945 	movt	r1, #18757	; 0x4945
    4a50:	e1500001 	cmp	r0, r1
    4a54:	e3091e8e 	movw	r1, #40590	; 0x9e8e
    4a58:	e3491438 	movt	r1, #37944	; 0x9438
    4a5c:	e1a03001 	mov	r3, r1
    4a60:	e3081e01 	movw	r1, #36353	; 0x8e01
    4a64:	e3471f2b 	movt	r1, #32555	; 0x7f2b
    4a68:	e1a02001 	mov	r2, r1
    4a6c:	e30b1e56 	movw	r1, #48726	; 0xbe56
    4a70:	e3471fa7 	movt	r1, #32679	; 0x7fa7
    4a74:	e1a0e001 	mov	lr, r1
    4a78:	1afff571 	bne	2044 <Java_com_geohot_towelroot_TowelRoot_rootTheShit+0xed4>
    4a7c:	e30406da 	movw	r0, #18138	; 0x46da
    4a80:	e3440eb0 	movt	r0, #20144	; 0x4eb0
    4a84:	eafff56e 	b	2044 <Java_com_geohot_towelroot_TowelRoot_rootTheShit+0xed4>
    4a88:	e30d1df9 	movw	r1, #56825	; 0xddf9
    4a8c:	e34510b3 	movt	r1, #20659	; 0x50b3
    4a90:	e1500001 	cmp	r0, r1
    4a94:	ca000010 	bgt	4adc <Java_com_geohot_towelroot_TowelRoot_rootTheShit+0x396c>
    4a98:	e30416da 	movw	r1, #18138	; 0x46da
    4a9c:	e3a0c000 	mov	ip, #0
    4aa0:	e3441eb0 	movt	r1, #20144	; 0x4eb0
    4aa4:	e1500001 	cmp	r0, r1
    4aa8:	e3091e8e 	movw	r1, #40590	; 0x9e8e
    4aac:	e3491438 	movt	r1, #37944	; 0x9438
    4ab0:	e1a03001 	mov	r3, r1
    4ab4:	e3081e01 	movw	r1, #36353	; 0x8e01
    4ab8:	e3471f2b 	movt	r1, #32555	; 0x7f2b
    4abc:	e1a02001 	mov	r2, r1
    4ac0:	e30b1e56 	movw	r1, #48726	; 0xbe56
    4ac4:	e3471fa7 	movt	r1, #32679	; 0x7fa7
    4ac8:	e1a0e001 	mov	lr, r1
    4acc:	1afff55c 	bne	2044 <Java_com_geohot_towelroot_TowelRoot_rootTheShit+0xed4>
    4ad0:	e3030d1e 	movw	r0, #15646	; 0x3d1e
    4ad4:	e3490ab7 	movt	r0, #39607	; 0x9ab7
    4ad8:	eafff559 	b	2044 <Java_com_geohot_towelroot_TowelRoot_rootTheShit+0xed4>
    4adc:	e3041466 	movw	r1, #17510	; 0x4466
    4ae0:	e34515cb 	movt	r1, #21963	; 0x55cb
    4ae4:	e1500001 	cmp	r0, r1
    4ae8:	ca000010 	bgt	4b30 <Java_com_geohot_towelroot_TowelRoot_rootTheShit+0x39c0>
    4aec:	e30d1dfa 	movw	r1, #56826	; 0xddfa
    4af0:	e3a0c000 	mov	ip, #0
    4af4:	e34510b3 	movt	r1, #20659	; 0x50b3
    4af8:	e1500001 	cmp	r0, r1
    4afc:	e3091e8e 	movw	r1, #40590	; 0x9e8e
    4b00:	e3491438 	movt	r1, #37944	; 0x9438
    4b04:	e1a03001 	mov	r3, r1
    4b08:	e3081e01 	movw	r1, #36353	; 0x8e01
    4b0c:	e3471f2b 	movt	r1, #32555	; 0x7f2b
    4b10:	e1a02001 	mov	r2, r1
    4b14:	e30b1e56 	movw	r1, #48726	; 0xbe56
    4b18:	e3471fa7 	movt	r1, #32679	; 0x7fa7
    4b1c:	e1a0e001 	mov	lr, r1
    4b20:	1afff547 	bne	2044 <Java_com_geohot_towelroot_TowelRoot_rootTheShit+0xed4>
    4b24:	e3060cf6 	movw	r0, #27894	; 0x6cf6
    4b28:	e3460232 	movt	r0, #25138	; 0x6232
    4b2c:	eafff544 	b	2044 <Java_com_geohot_towelroot_TowelRoot_rootTheShit+0xed4>
    4b30:	e3001554 	movw	r1, #1364	; 0x554
    4b34:	e34518e1 	movt	r1, #22753	; 0x58e1
    4b38:	e1500001 	cmp	r0, r1
    4b3c:	ca00000e 	bgt	4b7c <Java_com_geohot_towelroot_TowelRoot_rootTheShit+0x3a0c>
    4b40:	e3041467 	movw	r1, #17511	; 0x4467
    4b44:	e3a0c000 	mov	ip, #0
    4b48:	e34515cb 	movt	r1, #21963	; 0x55cb
    4b4c:	e1500001 	cmp	r0, r1
    4b50:	e3091e8e 	movw	r1, #40590	; 0x9e8e
    4b54:	e3491438 	movt	r1, #37944	; 0x9438
    4b58:	e1a03001 	mov	r3, r1
    4b5c:	e3081e01 	movw	r1, #36353	; 0x8e01
    4b60:	e3471f2b 	movt	r1, #32555	; 0x7f2b
    4b64:	e1a02001 	mov	r2, r1
    4b68:	e30b1e56 	movw	r1, #48726	; 0xbe56
    4b6c:	e3471fa7 	movt	r1, #32679	; 0x7fa7
    4b70:	e1a0e001 	mov	lr, r1
    4b74:	1afff532 	bne	2044 <Java_com_geohot_towelroot_TowelRoot_rootTheShit+0xed4>
    4b78:	ea000279 	b	5564 <Java_com_geohot_towelroot_TowelRoot_rootTheShit+0x43f4>
    4b7c:	e30712bb 	movw	r1, #29371	; 0x72bb
    4b80:	e3451d3b 	movt	r1, #23867	; 0x5d3b
    4b84:	e1500001 	cmp	r0, r1
    4b88:	ca000010 	bgt	4bd0 <Java_com_geohot_towelroot_TowelRoot_rootTheShit+0x3a60>
    4b8c:	e3001555 	movw	r1, #1365	; 0x555
    4b90:	e3a0c000 	mov	ip, #0
    4b94:	e34518e1 	movt	r1, #22753	; 0x58e1
    4b98:	e1500001 	cmp	r0, r1
    4b9c:	e3091e8e 	movw	r1, #40590	; 0x9e8e
    4ba0:	e3491438 	movt	r1, #37944	; 0x9438
    4ba4:	e1a03001 	mov	r3, r1
    4ba8:	e3081e01 	movw	r1, #36353	; 0x8e01
    4bac:	e3471f2b 	movt	r1, #32555	; 0x7f2b
    4bb0:	e1a02001 	mov	r2, r1
    4bb4:	e30b1e56 	movw	r1, #48726	; 0xbe56
    4bb8:	e3471fa7 	movt	r1, #32679	; 0x7fa7
    4bbc:	e1a0e001 	mov	lr, r1
    4bc0:	1afff51f 	bne	2044 <Java_com_geohot_towelroot_TowelRoot_rootTheShit+0xed4>
    4bc4:	e30a0c66 	movw	r0, #44134	; 0xac66
    4bc8:	e34d089d 	movt	r0, #55453	; 0xd89d
    4bcc:	eafff51c 	b	2044 <Java_com_geohot_towelroot_TowelRoot_rootTheShit+0xed4>
    4bd0:	e30b1a0b 	movw	r1, #47627	; 0xba0b
    4bd4:	e3451e10 	movt	r1, #24080	; 0x5e10
    4bd8:	e1500001 	cmp	r0, r1
    4bdc:	ca00001a 	bgt	4c4c <Java_com_geohot_towelroot_TowelRoot_rootTheShit+0x3adc>
    4be0:	e30712bc 	movw	r1, #29372	; 0x72bc
    4be4:	e3a0c000 	mov	ip, #0
    4be8:	e3451d3b 	movt	r1, #23867	; 0x5d3b
    4bec:	e1500001 	cmp	r0, r1
    4bf0:	e3091e8e 	movw	r1, #40590	; 0x9e8e
    4bf4:	e3491438 	movt	r1, #37944	; 0x9438
    4bf8:	e1a03001 	mov	r3, r1
    4bfc:	e3081e01 	movw	r1, #36353	; 0x8e01
    4c00:	e3471f2b 	movt	r1, #32555	; 0x7f2b
    4c04:	e1a02001 	mov	r2, r1
    4c08:	e30b1e56 	movw	r1, #48726	; 0xbe56
    4c0c:	e3471fa7 	movt	r1, #32679	; 0x7fa7
    4c10:	e1a0e001 	mov	lr, r1
    4c14:	1afff50a 	bne	2044 <Java_com_geohot_towelroot_TowelRoot_rootTheShit+0xed4>
    4c18:	e24bea02 	sub	lr, fp, #8192	; 0x2000
    4c1c:	e307c51c 	movw	ip, #29980	; 0x751c
    4c20:	e346c4a8 	movt	ip, #25768	; 0x64a8
    4c24:	e51e0148 	ldr	r0, [lr, #-328]	; 0x148
    4c28:	e24bea02 	sub	lr, fp, #8192	; 0x2000
    4c2c:	e5900000 	ldr	r0, [r0]
    4c30:	e2603000 	rsb	r3, r0, #0
    4c34:	e2801008 	add	r1, r0, #8
    4c38:	e2802020 	add	r2, r0, #32
    4c3c:	e2633028 	rsb	r3, r3, #40	; 0x28
    4c40:	e50e1188 	str	r1, [lr, #-392]	; 0x188
    4c44:	e1a01000 	mov	r1, r0
    4c48:	ea000024 	b	4ce0 <Java_com_geohot_towelroot_TowelRoot_rootTheShit+0x3b70>
    4c4c:	e30913c1 	movw	r1, #37825	; 0x93c1
    4c50:	e3461095 	movt	r1, #24725	; 0x6095
    4c54:	e1500001 	cmp	r0, r1
    4c58:	ca000030 	bgt	4d20 <Java_com_geohot_towelroot_TowelRoot_rootTheShit+0x3bb0>
    4c5c:	e30b1a0c 	movw	r1, #47628	; 0xba0c
    4c60:	e3a0c000 	mov	ip, #0
    4c64:	e3451e10 	movt	r1, #24080	; 0x5e10
    4c68:	e1500001 	cmp	r0, r1
    4c6c:	e3091e8e 	movw	r1, #40590	; 0x9e8e
    4c70:	e3491438 	movt	r1, #37944	; 0x9438
    4c74:	e1a03001 	mov	r3, r1
    4c78:	e3081e01 	movw	r1, #36353	; 0x8e01
    4c7c:	e3471f2b 	movt	r1, #32555	; 0x7f2b
    4c80:	e1a02001 	mov	r2, r1
    4c84:	e30b1e56 	movw	r1, #48726	; 0xbe56
    4c88:	e3471fa7 	movt	r1, #32679	; 0x7fa7
    4c8c:	e1a0e001 	mov	lr, r1
    4c90:	1afff4eb 	bne	2044 <Java_com_geohot_towelroot_TowelRoot_rootTheShit+0xed4>
    4c94:	e3040ad9 	movw	r0, #19161	; 0x4ad9
    4c98:	e347073d 	movt	r0, #30525	; 0x773d
    4c9c:	eafff4e8 	b	2044 <Java_com_geohot_towelroot_TowelRoot_rootTheShit+0xed4>
    4ca0:	ffffffa0 			; <UNDEFINED> instruction: 0xffffffa0
    4ca4:	e1a0c001 	mov	ip, r1
    4ca8:	e24c0004 	sub	r0, ip, #4
    4cac:	e3a01081 	mov	r1, #129	; 0x81
    4cb0:	e24bea02 	sub	lr, fp, #8192	; 0x2000
    4cb4:	e5801000 	str	r1, [r0]
    4cb8:	e3a00085 	mov	r0, #133	; 0x85
    4cbc:	e58c2000 	str	r2, [ip]
    4cc0:	e1a0100c 	mov	r1, ip
    4cc4:	e58c3008 	str	r3, [ip, #8]
    4cc8:	e58c001c 	str	r0, [ip, #28]
    4ccc:	e51e0188 	ldr	r0, [lr, #-392]	; 0x188
    4cd0:	e58cc024 	str	ip, [ip, #36]	; 0x24
    4cd4:	e58c002c 	str	r0, [ip, #44]	; 0x2c
    4cd8:	e305c18e 	movw	ip, #20878	; 0x518e
    4cdc:	e343c068 	movt	ip, #12392	; 0x3068
    4ce0:	e305018e 	movw	r0, #20878	; 0x518e
    4ce4:	e1a0e00c 	mov	lr, ip
    4ce8:	e3430068 	movt	r0, #12392	; 0x3068
    4cec:	e15e0000 	cmp	lr, r0
    4cf0:	0a000020 	beq	4d78 <Java_com_geohot_towelroot_TowelRoot_rootTheShit+0x3c08>
    4cf4:	e304c86e 	movw	ip, #18542	; 0x486e
    4cf8:	e307051c 	movw	r0, #29980	; 0x751c
    4cfc:	e34ec360 	movt	ip, #58208	; 0xe360
    4d00:	e34604a8 	movt	r0, #25768	; 0x64a8
    4d04:	e15e0000 	cmp	lr, r0
    4d08:	0afffff4 	beq	4ce0 <Java_com_geohot_towelroot_TowelRoot_rootTheShit+0x3b70>
    4d0c:	e304086e 	movw	r0, #18542	; 0x486e
    4d10:	e34e0360 	movt	r0, #58208	; 0xe360
    4d14:	e15e0000 	cmp	lr, r0
    4d18:	0affffe1 	beq	4ca4 <Java_com_geohot_towelroot_TowelRoot_rootTheShit+0x3b34>
    4d1c:	ea0002fd 	b	5918 <Java_com_geohot_towelroot_TowelRoot_rootTheShit+0x47a8>
    4d20:	e30a10a2 	movw	r1, #41122	; 0xa0a2
    4d24:	e34610ef 	movt	r1, #24815	; 0x60ef
    4d28:	e1500001 	cmp	r0, r1
    4d2c:	ca000027 	bgt	4dd0 <Java_com_geohot_towelroot_TowelRoot_rootTheShit+0x3c60>
    4d30:	e30913c2 	movw	r1, #37826	; 0x93c2
    4d34:	e3a0c000 	mov	ip, #0
    4d38:	e3461095 	movt	r1, #24725	; 0x6095
    4d3c:	e1500001 	cmp	r0, r1
    4d40:	e3091e8e 	movw	r1, #40590	; 0x9e8e
    4d44:	e3491438 	movt	r1, #37944	; 0x9438
    4d48:	e1a03001 	mov	r3, r1
    4d4c:	e3081e01 	movw	r1, #36353	; 0x8e01
    4d50:	e3471f2b 	movt	r1, #32555	; 0x7f2b
    4d54:	e1a02001 	mov	r2, r1
    4d58:	e30b1e56 	movw	r1, #48726	; 0xbe56
    4d5c:	e3471fa7 	movt	r1, #32679	; 0x7fa7
    4d60:	e1a0e001 	mov	lr, r1
    4d64:	1afff4b6 	bne	2044 <Java_com_geohot_towelroot_TowelRoot_rootTheShit+0xed4>
    4d68:	e3070f14 	movw	r0, #32532	; 0x7f14
    4d6c:	e3440945 	movt	r0, #18757	; 0x4945
    4d70:	eafff4b3 	b	2044 <Java_com_geohot_towelroot_TowelRoot_rootTheShit+0xed4>
    4d74:	ffffffb8 			; <UNDEFINED> instruction: 0xffffffb8
    4d78:	e3a0000a 	mov	r0, #10
    4d7c:	eb000a43 	bl	7690 <Java_com_geohot_towelroot_TowelRoot_rootTheShit+0x6520>
    4d80:	e5961014 	ldr	r1, [r6, #20]
    4d84:	e24bea02 	sub	lr, fp, #8192	; 0x2000
    4d88:	e5810000 	str	r0, [r1]
    4d8c:	e51e014c 	ldr	r0, [lr, #-332]	; 0x14c
    4d90:	e5900000 	ldr	r0, [r0]
    4d94:	e5900000 	ldr	r0, [r0]
    4d98:	e5961034 	ldr	r1, [r6, #52]	; 0x34
    4d9c:	e5810000 	str	r0, [r1]
    4da0:	e5960034 	ldr	r0, [r6, #52]	; 0x34
    4da4:	e5900000 	ldr	r0, [r0]
    4da8:	e596102c 	ldr	r1, [r6, #44]	; 0x2c
    4dac:	e5911000 	ldr	r1, [r1]
    4db0:	e1500001 	cmp	r0, r1
    4db4:	e303008b 	movw	r0, #12427	; 0x308b
    4db8:	e3440023 	movt	r0, #16419	; 0x4023
    4dbc:	330d0dfa 	movwcc	r0, #56826	; 0xddfa
    4dc0:	334500b3 	movtcc	r0, #20659	; 0x50b3
    4dc4:	ea0002b8 	b	58ac <Java_com_geohot_towelroot_TowelRoot_rootTheShit+0x473c>
    4dc8:	fffe1cc6 			; <UNDEFINED> instruction: 0xfffe1cc6
    4dcc:	fffe1ce0 			; <UNDEFINED> instruction: 0xfffe1ce0
    4dd0:	e3061cf5 	movw	r1, #27893	; 0x6cf5
    4dd4:	e3461232 	movt	r1, #25138	; 0x6232
    4dd8:	e1500001 	cmp	r0, r1
    4ddc:	ca000010 	bgt	4e24 <Java_com_geohot_towelroot_TowelRoot_rootTheShit+0x3cb4>
    4de0:	e30a10a3 	movw	r1, #41123	; 0xa0a3
    4de4:	e3a0c000 	mov	ip, #0
    4de8:	e34610ef 	movt	r1, #24815	; 0x60ef
    4dec:	e1500001 	cmp	r0, r1
    4df0:	e3091e8e 	movw	r1, #40590	; 0x9e8e
    4df4:	e3491438 	movt	r1, #37944	; 0x9438
    4df8:	e1a03001 	mov	r3, r1
    4dfc:	e3081e01 	movw	r1, #36353	; 0x8e01
    4e00:	e3471f2b 	movt	r1, #32555	; 0x7f2b
    4e04:	e1a02001 	mov	r2, r1
    4e08:	e30b1e56 	movw	r1, #48726	; 0xbe56
    4e0c:	e3471fa7 	movt	r1, #32679	; 0x7fa7
    4e10:	e1a0e001 	mov	lr, r1
    4e14:	1afff48a 	bne	2044 <Java_com_geohot_towelroot_TowelRoot_rootTheShit+0xed4>
    4e18:	e3000555 	movw	r0, #1365	; 0x555
    4e1c:	e34508e1 	movt	r0, #22753	; 0x58e1
    4e20:	eafff487 	b	2044 <Java_com_geohot_towelroot_TowelRoot_rootTheShit+0xed4>
    4e24:	e3051980 	movw	r1, #22912	; 0x5980
    4e28:	e34613b7 	movt	r1, #25527	; 0x63b7
    4e2c:	e1500001 	cmp	r0, r1
    4e30:	ca000015 	bgt	4e8c <Java_com_geohot_towelroot_TowelRoot_rootTheShit+0x3d1c>
    4e34:	e3061cf6 	movw	r1, #27894	; 0x6cf6
    4e38:	e3a0c000 	mov	ip, #0
    4e3c:	e3461232 	movt	r1, #25138	; 0x6232
    4e40:	e1500001 	cmp	r0, r1
    4e44:	e3091e8e 	movw	r1, #40590	; 0x9e8e
    4e48:	e3491438 	movt	r1, #37944	; 0x9438
    4e4c:	e1a03001 	mov	r3, r1
    4e50:	e3081e01 	movw	r1, #36353	; 0x8e01
    4e54:	e3471f2b 	movt	r1, #32555	; 0x7f2b
    4e58:	e1a02001 	mov	r2, r1
    4e5c:	e30b1e56 	movw	r1, #48726	; 0xbe56
    4e60:	e3471fa7 	movt	r1, #32679	; 0x7fa7
    4e64:	e1a0e001 	mov	lr, r1
    4e68:	1afff475 	bne	2044 <Java_com_geohot_towelroot_TowelRoot_rootTheShit+0xed4>
    4e6c:	e5960030 	ldr	r0, [r6, #48]	; 0x30
    4e70:	e5900000 	ldr	r0, [r0]
    4e74:	e3500009 	cmp	r0, #9
    4e78:	e3040467 	movw	r0, #17511	; 0x4467
    4e7c:	e34505cb 	movt	r0, #21963	; 0x55cb
    4e80:	1306057e 	movwne	r0, #25982	; 0x657e
    4e84:	134b033e 	movtne	r0, #45886	; 0xb33e
    4e88:	eafff46d 	b	2044 <Java_com_geohot_towelroot_TowelRoot_rootTheShit+0xed4>
    4e8c:	e3091136 	movw	r1, #37174	; 0x9136
    4e90:	e34614d0 	movt	r1, #25808	; 0x64d0
    4e94:	e1500001 	cmp	r0, r1
    4e98:	ca000017 	bgt	4efc <Java_com_geohot_towelroot_TowelRoot_rootTheShit+0x3d8c>
    4e9c:	e3051981 	movw	r1, #22913	; 0x5981
    4ea0:	e3a0c000 	mov	ip, #0
    4ea4:	e34613b7 	movt	r1, #25527	; 0x63b7
    4ea8:	e1500001 	cmp	r0, r1
    4eac:	e3091e8e 	movw	r1, #40590	; 0x9e8e
    4eb0:	e3491438 	movt	r1, #37944	; 0x9438
    4eb4:	e1a03001 	mov	r3, r1
    4eb8:	e3081e01 	movw	r1, #36353	; 0x8e01
    4ebc:	e3471f2b 	movt	r1, #32555	; 0x7f2b
    4ec0:	e1a02001 	mov	r2, r1
    4ec4:	e30b1e56 	movw	r1, #48726	; 0xbe56
    4ec8:	e3471fa7 	movt	r1, #32679	; 0x7fa7
    4ecc:	e1a0e001 	mov	lr, r1
    4ed0:	1afff45b 	bne	2044 <Java_com_geohot_towelroot_TowelRoot_rootTheShit+0xed4>
    4ed4:	e24b1a02 	sub	r1, fp, #8192	; 0x2000
    4ed8:	e5110150 	ldr	r0, [r1, #-336]	; 0x150
    4edc:	e5900000 	ldr	r0, [r0]
    4ee0:	e3500000 	cmp	r0, #0
    4ee4:	e3a00000 	mov	r0, #0
    4ee8:	03000001 	movweq	r0, #1
    4eec:	e5c6003f 	strb	r0, [r6, #63]	; 0x3f
    4ef0:	e30d03d4 	movw	r0, #54228	; 0xd3d4
    4ef4:	e3410297 	movt	r0, #4759	; 0x1297
    4ef8:	eafff451 	b	2044 <Java_com_geohot_towelroot_TowelRoot_rootTheShit+0xed4>
    4efc:	e30e186c 	movw	r1, #59500	; 0xe86c
    4f00:	e346176e 	movt	r1, #26478	; 0x676e
    4f04:	e1500001 	cmp	r0, r1
    4f08:	ca000028 	bgt	4fb0 <Java_com_geohot_towelroot_TowelRoot_rootTheShit+0x3e40>
    4f0c:	e3091137 	movw	r1, #37175	; 0x9137
    4f10:	e3a0c000 	mov	ip, #0
    4f14:	e34614d0 	movt	r1, #25808	; 0x64d0
    4f18:	e1500001 	cmp	r0, r1
    4f1c:	e3091e8e 	movw	r1, #40590	; 0x9e8e
    4f20:	e3491438 	movt	r1, #37944	; 0x9438
    4f24:	e1a03001 	mov	r3, r1
    4f28:	e3081e01 	movw	r1, #36353	; 0x8e01
    4f2c:	e3471f2b 	movt	r1, #32555	; 0x7f2b
    4f30:	e1a02001 	mov	r2, r1
    4f34:	e30b1e56 	movw	r1, #48726	; 0xbe56
    4f38:	e3471fa7 	movt	r1, #32679	; 0x7fa7
    4f3c:	e1a0e001 	mov	lr, r1
    4f40:	1afff43f 	bne	2044 <Java_com_geohot_towelroot_TowelRoot_rootTheShit+0xed4>
    4f44:	e24bea02 	sub	lr, fp, #8192	; 0x2000
    4f48:	e59f09f8 	ldr	r0, [pc, #2552]	; 5948 <Java_com_geohot_towelroot_TowelRoot_rootTheShit+0x47d8>
    4f4c:	e51e1154 	ldr	r1, [lr, #-340]	; 0x154
    4f50:	e24bea02 	sub	lr, fp, #8192	; 0x2000
    4f54:	e7900001 	ldr	r0, [r0, r1]
    4f58:	e50e0188 	str	r0, [lr, #-392]	; 0x188
    4f5c:	e3a00004 	mov	r0, #4
    4f60:	ebfff031 	bl	102c <Java_com_geohot_towelroot_TowelRoot_rootTheShit-0x144>
    4f64:	e24bea02 	sub	lr, fp, #8192	; 0x2000
    4f68:	e51e1188 	ldr	r1, [lr, #-392]	; 0x188
    4f6c:	e5810000 	str	r0, [r1]
    4f70:	e3a01000 	mov	r1, #0
    4f74:	ebfff02f 	bl	1038 <Java_com_geohot_towelroot_TowelRoot_rootTheShit-0x138>
    4f78:	e24bea02 	sub	lr, fp, #8192	; 0x2000
    4f7c:	e59f09c8 	ldr	r0, [pc, #2504]	; 594c <Java_com_geohot_towelroot_TowelRoot_rootTheShit+0x47dc>
    4f80:	e307c51c 	movw	ip, #29980	; 0x751c
    4f84:	e51e1154 	ldr	r1, [lr, #-340]	; 0x154
    4f88:	e24bea02 	sub	lr, fp, #8192	; 0x2000
    4f8c:	e346c4a8 	movt	ip, #25768	; 0x64a8
    4f90:	e7900001 	ldr	r0, [r0, r1]
    4f94:	e5900000 	ldr	r0, [r0]
    4f98:	e2801008 	add	r1, r0, #8
    4f9c:	e2802028 	add	r2, r0, #40	; 0x28
    4fa0:	e2803020 	add	r3, r0, #32
    4fa4:	e50e1188 	str	r1, [lr, #-392]	; 0x188
    4fa8:	e1a01000 	mov	r1, r0
    4fac:	ea00006d 	b	5168 <Java_com_geohot_towelroot_TowelRoot_rootTheShit+0x3ff8>
    4fb0:	e30e187a 	movw	r1, #59514	; 0xe87a
    4fb4:	e3461847 	movt	r1, #26695	; 0x6847
    4fb8:	e1500001 	cmp	r0, r1
    4fbc:	ca000079 	bgt	51a8 <Java_com_geohot_towelroot_TowelRoot_rootTheShit+0x4038>
    4fc0:	e30e186d 	movw	r1, #59501	; 0xe86d
    4fc4:	e3a0c000 	mov	ip, #0
    4fc8:	e346176e 	movt	r1, #26478	; 0x676e
    4fcc:	e1500001 	cmp	r0, r1
    4fd0:	e3091e8e 	movw	r1, #40590	; 0x9e8e
    4fd4:	e3491438 	movt	r1, #37944	; 0x9438
    4fd8:	e1a03001 	mov	r3, r1
    4fdc:	e3081e01 	movw	r1, #36353	; 0x8e01
    4fe0:	e3471f2b 	movt	r1, #32555	; 0x7f2b
    4fe4:	e1a02001 	mov	r2, r1
    4fe8:	e30b1e56 	movw	r1, #48726	; 0xbe56
    4fec:	e3471fa7 	movt	r1, #32679	; 0x7fa7
    4ff0:	e1a0e001 	mov	lr, r1
    4ff4:	1afff412 	bne	2044 <Java_com_geohot_towelroot_TowelRoot_rootTheShit+0xed4>
    4ff8:	e24bea02 	sub	lr, fp, #8192	; 0x2000
    4ffc:	e5960020 	ldr	r0, [r6, #32]
    5000:	e51e115c 	ldr	r1, [lr, #-348]	; 0x15c
    5004:	e24bea02 	sub	lr, fp, #8192	; 0x2000
    5008:	e5900000 	ldr	r0, [r0]
    500c:	e50e0198 	str	r0, [lr, #-408]	; 0x198
    5010:	e24bea02 	sub	lr, fp, #8192	; 0x2000
    5014:	e5911000 	ldr	r1, [r1]
    5018:	e591000c 	ldr	r0, [r1, #12]
    501c:	e50e019c 	str	r0, [lr, #-412]	; 0x19c
    5020:	e24bea02 	sub	lr, fp, #8192	; 0x2000
    5024:	e5960028 	ldr	r0, [r6, #40]	; 0x28
    5028:	e5900000 	ldr	r0, [r0]
    502c:	e50e0188 	str	r0, [lr, #-392]	; 0x188
    5030:	e24bea02 	sub	lr, fp, #8192	; 0x2000
    5034:	e5960028 	ldr	r0, [r6, #40]	; 0x28
    5038:	e50e018c 	str	r0, [lr, #-396]	; 0x18c
    503c:	e24dd008 	sub	sp, sp, #8
    5040:	e3e00000 	mvn	r0, #0
    5044:	e24bea02 	sub	lr, fp, #8192	; 0x2000
    5048:	e88d1001 	stm	sp, {r0, ip}
    504c:	e3001fff 	movw	r1, #4095	; 0xfff
    5050:	e3a02007 	mov	r2, #7
    5054:	e51e0188 	ldr	r0, [lr, #-392]	; 0x188
    5058:	e24bea02 	sub	lr, fp, #8192	; 0x2000
    505c:	e3a03031 	mov	r3, #49	; 0x31
    5060:	e2400a01 	sub	r0, r0, #4096	; 0x1000
    5064:	e0201001 	eor	r1, r0, r1
    5068:	e0010000 	and	r0, r1, r0
    506c:	e50e0190 	str	r0, [lr, #-400]	; 0x190
    5070:	e24bea02 	sub	lr, fp, #8192	; 0x2000
    5074:	e3a01a02 	mov	r1, #8192	; 0x2000
    5078:	e51e0190 	ldr	r0, [lr, #-400]	; 0x190
    507c:	ebffefb7 	bl	f60 <Java_com_geohot_towelroot_TowelRoot_rootTheShit-0x210>
    5080:	e28dd008 	add	sp, sp, #8
    5084:	e24bea02 	sub	lr, fp, #8192	; 0x2000
    5088:	e50b0024 	str	r0, [fp, #-36]	; 0x24
    508c:	e3e0101f 	mvn	r1, #31
    5090:	e51e0190 	ldr	r0, [lr, #-400]	; 0x190
    5094:	e24bea02 	sub	lr, fp, #8192	; 0x2000
    5098:	e5860040 	str	r0, [r6, #64]	; 0x40
    509c:	e51e0188 	ldr	r0, [lr, #-392]	; 0x188
    50a0:	e24bea02 	sub	lr, fp, #8192	; 0x2000
    50a4:	e2600000 	rsb	r0, r0, #0
    50a8:	e0411000 	sub	r1, r1, r0
    50ac:	e50e1194 	str	r1, [lr, #-404]	; 0x194
    50b0:	e24bea02 	sub	lr, fp, #8192	; 0x2000
    50b4:	e2600008 	rsb	r0, r0, #8
    50b8:	e51e1198 	ldr	r1, [lr, #-408]	; 0x198
    50bc:	e24bea02 	sub	lr, fp, #8192	; 0x2000
    50c0:	e51e219c 	ldr	r2, [lr, #-412]	; 0x19c
    50c4:	e2611000 	rsb	r1, r1, #0
    50c8:	e24bea02 	sub	lr, fp, #8192	; 0x2000
    50cc:	e0411002 	sub	r1, r1, r2
    50d0:	e2611000 	rsb	r1, r1, #0
    50d4:	e50e1198 	str	r1, [lr, #-408]	; 0x198
    50d8:	e24bea02 	sub	lr, fp, #8192	; 0x2000
    50dc:	e51e1188 	ldr	r1, [lr, #-392]	; 0x188
    50e0:	e24bea02 	sub	lr, fp, #8192	; 0x2000
    50e4:	e2811004 	add	r1, r1, #4
    50e8:	e50e119c 	str	r1, [lr, #-412]	; 0x19c
    50ec:	e24bea02 	sub	lr, fp, #8192	; 0x2000
    50f0:	e51e1188 	ldr	r1, [lr, #-392]	; 0x188
    50f4:	e24bea02 	sub	lr, fp, #8192	; 0x2000
    50f8:	e2411018 	sub	r1, r1, #24
    50fc:	e50e11a0 	str	r1, [lr, #-416]	; 0x1a0
    5100:	e24bea02 	sub	lr, fp, #8192	; 0x2000
    5104:	e30a17b0 	movw	r1, #42928	; 0xa7b0
    5108:	e34b18c6 	movt	r1, #47302	; 0xb8c6
    510c:	e50e01a4 	str	r0, [lr, #-420]	; 0x1a4
    5110:	e24bea02 	sub	lr, fp, #8192	; 0x2000
    5114:	e1a02001 	mov	r2, r1
    5118:	e51e0188 	ldr	r0, [lr, #-392]	; 0x188
    511c:	e24bea02 	sub	lr, fp, #8192	; 0x2000
    5120:	e2400020 	sub	r0, r0, #32
    5124:	e50e01a8 	str	r0, [lr, #-424]	; 0x1a8
    5128:	ea00004d 	b	5264 <Java_com_geohot_towelroot_TowelRoot_rootTheShit+0x40f4>
    512c:	e1a0c001 	mov	ip, r1
    5130:	e24c0004 	sub	r0, ip, #4
    5134:	e3a01081 	mov	r1, #129	; 0x81
    5138:	e24bea02 	sub	lr, fp, #8192	; 0x2000
    513c:	e5801000 	str	r1, [r0]
    5140:	e3a00085 	mov	r0, #133	; 0x85
    5144:	e58c3000 	str	r3, [ip]
    5148:	e1a0100c 	mov	r1, ip
    514c:	e58c2008 	str	r2, [ip, #8]
    5150:	e58c001c 	str	r0, [ip, #28]
    5154:	e51e0188 	ldr	r0, [lr, #-392]	; 0x188
    5158:	e58cc024 	str	ip, [ip, #36]	; 0x24
    515c:	e58c002c 	str	r0, [ip, #44]	; 0x2c
    5160:	e305c18e 	movw	ip, #20878	; 0x518e
    5164:	e343c068 	movt	ip, #12392	; 0x3068
    5168:	e305018e 	movw	r0, #20878	; 0x518e
    516c:	e1a0e00c 	mov	lr, ip
    5170:	e3430068 	movt	r0, #12392	; 0x3068
    5174:	e15e0000 	cmp	lr, r0
    5178:	0a0000a4 	beq	5410 <Java_com_geohot_towelroot_TowelRoot_rootTheShit+0x42a0>
    517c:	e304c86e 	movw	ip, #18542	; 0x486e
    5180:	e307051c 	movw	r0, #29980	; 0x751c
    5184:	e34ec360 	movt	ip, #58208	; 0xe360
    5188:	e34604a8 	movt	r0, #25768	; 0x64a8
    518c:	e15e0000 	cmp	lr, r0
    5190:	0afffff4 	beq	5168 <Java_com_geohot_towelroot_TowelRoot_rootTheShit+0x3ff8>
    5194:	e304086e 	movw	r0, #18542	; 0x486e
    5198:	e34e0360 	movt	r0, #58208	; 0xe360
    519c:	e15e0000 	cmp	lr, r0
    51a0:	0affffe1 	beq	512c <Java_com_geohot_towelroot_TowelRoot_rootTheShit+0x3fbc>
    51a4:	ea0001dc 	b	591c <Java_com_geohot_towelroot_TowelRoot_rootTheShit+0x47ac>
    51a8:	e3071b2c 	movw	r1, #31532	; 0x7b2c
    51ac:	e34619d6 	movt	r1, #27094	; 0x69d6
    51b0:	e1500001 	cmp	r0, r1
    51b4:	ca0000d8 	bgt	551c <Java_com_geohot_towelroot_TowelRoot_rootTheShit+0x43ac>
    51b8:	e30e187b 	movw	r1, #59515	; 0xe87b
    51bc:	e3a0c000 	mov	ip, #0
    51c0:	e3461847 	movt	r1, #26695	; 0x6847
    51c4:	e1500001 	cmp	r0, r1
    51c8:	e3091e8e 	movw	r1, #40590	; 0x9e8e
    51cc:	e3491438 	movt	r1, #37944	; 0x9438
    51d0:	e1a03001 	mov	r3, r1
    51d4:	e3081e01 	movw	r1, #36353	; 0x8e01
    51d8:	e3471f2b 	movt	r1, #32555	; 0x7f2b
    51dc:	e1a02001 	mov	r2, r1
    51e0:	e30b1e56 	movw	r1, #48726	; 0xbe56
    51e4:	e3471fa7 	movt	r1, #32679	; 0x7fa7
    51e8:	e1a0e001 	mov	lr, r1
    51ec:	1afff394 	bne	2044 <Java_com_geohot_towelroot_TowelRoot_rootTheShit+0xed4>
    51f0:	e3a0000a 	mov	r0, #10
    51f4:	e1a08009 	mov	r8, r9
    51f8:	e1a0900a 	mov	r9, sl
    51fc:	e1a0a003 	mov	sl, r3
    5200:	ebffef77 	bl	fe4 <Java_com_geohot_towelroot_TowelRoot_rootTheShit-0x18c>
    5204:	e30b0e56 	movw	r0, #48726	; 0xbe56
    5208:	e1a0300a 	mov	r3, sl
    520c:	e3470fa7 	movt	r0, #32679	; 0x7fa7
    5210:	e1a0a009 	mov	sl, r9
    5214:	e1a0e000 	mov	lr, r0
    5218:	e3080e01 	movw	r0, #36353	; 0x8e01
    521c:	e3470f2b 	movt	r0, #32555	; 0x7f2b
    5220:	e1a09008 	mov	r9, r8
    5224:	e1a02000 	mov	r2, r0
    5228:	e30504d5 	movw	r0, #21717	; 0x54d5
    522c:	e3480e5b 	movt	r0, #36443	; 0x8e5b
    5230:	e3a0c000 	mov	ip, #0
    5234:	e1a08000 	mov	r8, r0
    5238:	e3040cd5 	movw	r0, #19669	; 0x4cd5
    523c:	e342009a 	movt	r0, #8346	; 0x209a
    5240:	eafff37f 	b	2044 <Java_com_geohot_towelroot_TowelRoot_rootTheShit+0xed4>
    5244:	e51b1024 	ldr	r1, [fp, #-36]	; 0x24
    5248:	e5962040 	ldr	r2, [r6, #64]	; 0x40
    524c:	e1510002 	cmp	r1, r2
    5250:	e30d16ff 	movw	r1, #55039	; 0xd6ff
    5254:	e34810bb 	movt	r1, #32955	; 0x80bb
    5258:	e1a02001 	mov	r2, r1
    525c:	1300298e 	movwne	r2, #2446	; 0x98e
    5260:	134b22e5 	movtne	r2, #45797	; 0xb2e5
    5264:	e1a01002 	mov	r1, r2
    5268:	e3092fc5 	movw	r2, #40901	; 0x9fc5
    526c:	e3462d79 	movt	r2, #28025	; 0x6d79
    5270:	e1510002 	cmp	r1, r2
    5274:	ca000012 	bgt	52c4 <Java_com_geohot_towelroot_TowelRoot_rootTheShit+0x4154>
    5278:	e30d26ff 	movw	r2, #55039	; 0xd6ff
    527c:	e34820bb 	movt	r2, #32955	; 0x80bb
    5280:	e1510002 	cmp	r1, r2
    5284:	e3092fc6 	movw	r2, #40902	; 0x9fc6
    5288:	e3462d79 	movt	r2, #28025	; 0x6d79
    528c:	0afffff4 	beq	5264 <Java_com_geohot_towelroot_TowelRoot_rootTheShit+0x40f4>
    5290:	e30a27b0 	movw	r2, #42928	; 0xa7b0
    5294:	e34b28c6 	movt	r2, #47302	; 0xb8c6
    5298:	e1510002 	cmp	r1, r2
    529c:	0affffe8 	beq	5244 <Java_com_geohot_towelroot_TowelRoot_rootTheShit+0x40d4>
    52a0:	e300298e 	movw	r2, #2446	; 0x98e
    52a4:	e34b22e5 	movt	r2, #45797	; 0xb2e5
    52a8:	e1510002 	cmp	r1, r2
    52ac:	1a000008 	bne	52d4 <Java_com_geohot_towelroot_TowelRoot_rootTheShit+0x4164>
    52b0:	e30b1e70 	movw	r1, #48752	; 0xbe70
    52b4:	e3e00000 	mvn	r0, #0
    52b8:	e349190d 	movt	r1, #39181	; 0x990d
    52bc:	e1a02001 	mov	r2, r1
    52c0:	eaffffe7 	b	5264 <Java_com_geohot_towelroot_TowelRoot_rootTheShit+0x40f4>
    52c4:	e3092fc6 	movw	r2, #40902	; 0x9fc6
    52c8:	e3462d79 	movt	r2, #28025	; 0x6d79
    52cc:	e1510002 	cmp	r1, r2
    52d0:	0a000006 	beq	52f0 <Java_com_geohot_towelroot_TowelRoot_rootTheShit+0x4180>
    52d4:	e30b2e70 	movw	r2, #48752	; 0xbe70
    52d8:	e30e3f6a 	movw	r3, #61290	; 0xef6a
    52dc:	e349290d 	movt	r2, #39181	; 0x990d
    52e0:	e34a355f 	movt	r3, #42335	; 0xa55f
    52e4:	e1510003 	cmp	r1, r3
    52e8:	0affffdd 	beq	5264 <Java_com_geohot_towelroot_TowelRoot_rootTheShit+0x40f4>
    52ec:	ea00009f 	b	5570 <Java_com_geohot_towelroot_TowelRoot_rootTheShit+0x4400>
    52f0:	e307051c 	movw	r0, #29980	; 0x751c
    52f4:	e34604a8 	movt	r0, #25768	; 0x64a8
    52f8:	ea000015 	b	5354 <Java_com_geohot_towelroot_TowelRoot_rootTheShit+0x41e4>
    52fc:	fffe1bcb 			; <UNDEFINED> instruction: 0xfffe1bcb
    5300:	e24bea02 	sub	lr, fp, #8192	; 0x2000
    5304:	e3a01081 	mov	r1, #129	; 0x81
    5308:	e51e2194 	ldr	r2, [lr, #-404]	; 0x194
    530c:	e24bea02 	sub	lr, fp, #8192	; 0x2000
    5310:	e2420004 	sub	r0, r2, #4
    5314:	e5801000 	str	r1, [r0]
    5318:	e51e0188 	ldr	r0, [lr, #-392]	; 0x188
    531c:	e24bea02 	sub	lr, fp, #8192	; 0x2000
    5320:	e5820000 	str	r0, [r2]
    5324:	e51e01a4 	ldr	r0, [lr, #-420]	; 0x1a4
    5328:	e24bea02 	sub	lr, fp, #8192	; 0x2000
    532c:	e5820008 	str	r0, [r2, #8]
    5330:	e3a00085 	mov	r0, #133	; 0x85
    5334:	e582001c 	str	r0, [r2, #28]
    5338:	e51e01a8 	ldr	r0, [lr, #-424]	; 0x1a8
    533c:	e24bea02 	sub	lr, fp, #8192	; 0x2000
    5340:	e5820024 	str	r0, [r2, #36]	; 0x24
    5344:	e51e01a0 	ldr	r0, [lr, #-416]	; 0x1a0
    5348:	e582002c 	str	r0, [r2, #44]	; 0x2c
    534c:	e305018e 	movw	r0, #20878	; 0x518e
    5350:	e3430068 	movt	r0, #12392	; 0x3068
    5354:	e1a01000 	mov	r1, r0
    5358:	e1a00001 	mov	r0, r1
    535c:	e305118e 	movw	r1, #20878	; 0x518e
    5360:	e3431068 	movt	r1, #12392	; 0x3068
    5364:	e1500001 	cmp	r0, r1
    5368:	0a00000a 	beq	5398 <Java_com_geohot_towelroot_TowelRoot_rootTheShit+0x4228>
    536c:	e307151c 	movw	r1, #29980	; 0x751c
    5370:	e34614a8 	movt	r1, #25768	; 0x64a8
    5374:	e1500001 	cmp	r0, r1
    5378:	e304186e 	movw	r1, #18542	; 0x486e
    537c:	e34e1360 	movt	r1, #58208	; 0xe360
    5380:	0afffff4 	beq	5358 <Java_com_geohot_towelroot_TowelRoot_rootTheShit+0x41e8>
    5384:	e304186e 	movw	r1, #18542	; 0x486e
    5388:	e34e1360 	movt	r1, #58208	; 0xe360
    538c:	e1500001 	cmp	r0, r1
    5390:	0affffda 	beq	5300 <Java_com_geohot_towelroot_TowelRoot_rootTheShit+0x4190>
    5394:	ea000161 	b	5920 <Java_com_geohot_towelroot_TowelRoot_rootTheShit+0x47b0>
    5398:	e24bea02 	sub	lr, fp, #8192	; 0x2000
    539c:	e51e0198 	ldr	r0, [lr, #-408]	; 0x198
    53a0:	e24bea02 	sub	lr, fp, #8192	; 0x2000
    53a4:	e51e119c 	ldr	r1, [lr, #-412]	; 0x19c
    53a8:	e24bea02 	sub	lr, fp, #8192	; 0x2000
    53ac:	e5810000 	str	r0, [r1]
    53b0:	e51e0160 	ldr	r0, [lr, #-352]	; 0x160
    53b4:	e24bea02 	sub	lr, fp, #8192	; 0x2000
    53b8:	e51e1188 	ldr	r1, [lr, #-392]	; 0x188
    53bc:	e5900000 	ldr	r0, [r0]
    53c0:	e5801000 	str	r1, [r0]
    53c4:	e3a0000a 	mov	r0, #10
    53c8:	eb0008b0 	bl	7690 <Java_com_geohot_towelroot_TowelRoot_rootTheShit+0x6520>
    53cc:	e24bea02 	sub	lr, fp, #8192	; 0x2000
    53d0:	e51e019c 	ldr	r0, [lr, #-412]	; 0x19c
    53d4:	e24bea02 	sub	lr, fp, #8192	; 0x2000
    53d8:	e51e118c 	ldr	r1, [lr, #-396]	; 0x18c
    53dc:	e24bea02 	sub	lr, fp, #8192	; 0x2000
    53e0:	e5900000 	ldr	r0, [r0]
    53e4:	e5810000 	str	r0, [r1]
    53e8:	e3a01a02 	mov	r1, #8192	; 0x2000
    53ec:	e51e0190 	ldr	r0, [lr, #-400]	; 0x190
    53f0:	ebffef16 	bl	1050 <Java_com_geohot_towelroot_TowelRoot_rootTheShit-0x120>
    53f4:	e30e1f6a 	movw	r1, #61290	; 0xef6a
    53f8:	e3a00000 	mov	r0, #0
    53fc:	e34a155f 	movt	r1, #42335	; 0xa55f
    5400:	e1a02001 	mov	r2, r1
    5404:	eaffff96 	b	5264 <Java_com_geohot_towelroot_TowelRoot_rootTheShit+0x40f4>
    5408:	ffffffa4 			; <UNDEFINED> instruction: 0xffffffa4
    540c:	ffffffc0 			; <UNDEFINED> instruction: 0xffffffc0
    5410:	e3a0000b 	mov	r0, #11
    5414:	eb00089d 	bl	7690 <Java_com_geohot_towelroot_TowelRoot_rootTheShit+0x6520>
    5418:	e24bea02 	sub	lr, fp, #8192	; 0x2000
    541c:	e596101c 	ldr	r1, [r6, #28]
    5420:	e59f2524 	ldr	r2, [pc, #1316]	; 594c <Java_com_geohot_towelroot_TowelRoot_rootTheShit+0x47dc>
    5424:	e51e3158 	ldr	r3, [lr, #-344]	; 0x158
    5428:	e24bea02 	sub	lr, fp, #8192	; 0x2000
    542c:	e5810000 	str	r0, [r1]
    5430:	e7922003 	ldr	r2, [r2, r3]
    5434:	e5920000 	ldr	r0, [r2]
    5438:	e5900000 	ldr	r0, [r0]
    543c:	e5961020 	ldr	r1, [r6, #32]
    5440:	e7cc001f 	bfc	r0, #0, #13
    5444:	e5810000 	str	r0, [r1]
    5448:	e5960020 	ldr	r0, [r6, #32]
    544c:	e51e2158 	ldr	r2, [lr, #-344]	; 0x158
    5450:	e24bea02 	sub	lr, fp, #8192	; 0x2000
    5454:	e59f14d0 	ldr	r1, [pc, #1232]	; 592c <Java_com_geohot_towelroot_TowelRoot_rootTheShit+0x47bc>
    5458:	e51e3158 	ldr	r3, [lr, #-344]	; 0x158
    545c:	e0811002 	add	r1, r1, r2
    5460:	e59f24e8 	ldr	r2, [pc, #1256]	; 5950 <Java_com_geohot_towelroot_TowelRoot_rootTheShit+0x47e0>
    5464:	e0822003 	add	r2, r2, r3
    5468:	e5903000 	ldr	r3, [r0]
    546c:	e3a00004 	mov	r0, #4
    5470:	ebffeeae 	bl	f30 <Java_com_geohot_towelroot_TowelRoot_rootTheShit-0x240>
    5474:	e24bea02 	sub	lr, fp, #8192	; 0x2000
    5478:	e59f04c4 	ldr	r0, [pc, #1220]	; 5944 <Java_com_geohot_towelroot_TowelRoot_rootTheShit+0x47d4>
    547c:	e51e1158 	ldr	r1, [lr, #-344]	; 0x158
    5480:	e24bea02 	sub	lr, fp, #8192	; 0x2000
    5484:	e51e2158 	ldr	r2, [lr, #-344]	; 0x158
    5488:	e24bea02 	sub	lr, fp, #8192	; 0x2000
    548c:	e7900001 	ldr	r0, [r0, r1]
    5490:	e59f14a8 	ldr	r1, [pc, #1192]	; 5940 <Java_com_geohot_towelroot_TowelRoot_rootTheShit+0x47d0>
    5494:	e7911002 	ldr	r1, [r1, r2]
    5498:	e3a02000 	mov	r2, #0
    549c:	e5802000 	str	r2, [r0]
    54a0:	e5812000 	str	r2, [r1]
    54a4:	e596001c 	ldr	r0, [r6, #28]
    54a8:	e51e2158 	ldr	r2, [lr, #-344]	; 0x158
    54ac:	e24bea02 	sub	lr, fp, #8192	; 0x2000
    54b0:	e59f149c 	ldr	r1, [pc, #1180]	; 5954 <Java_com_geohot_towelroot_TowelRoot_rootTheShit+0x47e4>
    54b4:	e5900000 	ldr	r0, [r0]
    54b8:	e7911002 	ldr	r1, [r1, r2]
    54bc:	e50e1188 	str	r1, [lr, #-392]	; 0x188
    54c0:	e24bea02 	sub	lr, fp, #8192	; 0x2000
    54c4:	e50e018c 	str	r0, [lr, #-396]	; 0x18c
    54c8:	e24bea02 	sub	lr, fp, #8192	; 0x2000
    54cc:	e51e0188 	ldr	r0, [lr, #-392]	; 0x188
    54d0:	ebffeea5 	bl	f6c <Java_com_geohot_towelroot_TowelRoot_rootTheShit-0x204>
    54d4:	e24bea02 	sub	lr, fp, #8192	; 0x2000
    54d8:	e3a0100c 	mov	r1, #12
    54dc:	e51e018c 	ldr	r0, [lr, #-396]	; 0x18c
    54e0:	ebffeeb9 	bl	fcc <Java_com_geohot_towelroot_TowelRoot_rootTheShit-0x1a4>
    54e4:	e24bea02 	sub	lr, fp, #8192	; 0x2000
    54e8:	e59f0468 	ldr	r0, [pc, #1128]	; 5958 <Java_com_geohot_towelroot_TowelRoot_rootTheShit+0x47e8>
    54ec:	e51e1158 	ldr	r1, [lr, #-344]	; 0x158
    54f0:	e24bea02 	sub	lr, fp, #8192	; 0x2000
    54f4:	e7900001 	ldr	r0, [r0, r1]
    54f8:	e51e1188 	ldr	r1, [lr, #-392]	; 0x188
    54fc:	ebffee9d 	bl	f78 <Java_com_geohot_towelroot_TowelRoot_rootTheShit-0x1f8>
    5500:	e24bea02 	sub	lr, fp, #8192	; 0x2000
    5504:	e51e0188 	ldr	r0, [lr, #-392]	; 0x188
    5508:	ebffeeb2 	bl	fd8 <Java_com_geohot_towelroot_TowelRoot_rootTheShit-0x198>
    550c:	e30e04b3 	movw	r0, #58547	; 0xe4b3
    5510:	e3a0c000 	mov	ip, #0
    5514:	e3430541 	movt	r0, #13633	; 0x3541
    5518:	ea0000e4 	b	58b0 <Java_com_geohot_towelroot_TowelRoot_rootTheShit+0x4740>
    551c:	e3031d60 	movw	r1, #15712	; 0x3d60
    5520:	e3461a09 	movt	r1, #27145	; 0x6a09
    5524:	e1500001 	cmp	r0, r1
    5528:	ca00001a 	bgt	5598 <Java_com_geohot_towelroot_TowelRoot_rootTheShit+0x4428>
    552c:	e3071b2d 	movw	r1, #31533	; 0x7b2d
    5530:	e3a0c000 	mov	ip, #0
    5534:	e34619d6 	movt	r1, #27094	; 0x69d6
    5538:	e1500001 	cmp	r0, r1
    553c:	e3091e8e 	movw	r1, #40590	; 0x9e8e
    5540:	e3491438 	movt	r1, #37944	; 0x9438
    5544:	e1a03001 	mov	r3, r1
    5548:	e3081e01 	movw	r1, #36353	; 0x8e01
    554c:	e3471f2b 	movt	r1, #32555	; 0x7f2b
    5550:	e1a02001 	mov	r2, r1
    5554:	e30b1e56 	movw	r1, #48726	; 0xbe56
    5558:	e3471fa7 	movt	r1, #32679	; 0x7fa7
    555c:	e1a0e001 	mov	lr, r1
    5560:	1afff2b7 	bne	2044 <Java_com_geohot_towelroot_TowelRoot_rootTheShit+0xed4>
    5564:	e3060263 	movw	r0, #25187	; 0x6263
    5568:	e34f0c85 	movt	r0, #64645	; 0xfc85
    556c:	eafff2b4 	b	2044 <Java_com_geohot_towelroot_TowelRoot_rootTheShit+0xed4>
    5570:	e30b2e70 	movw	r2, #48752	; 0xbe70
    5574:	e349290d 	movt	r2, #39181	; 0x990d
    5578:	e1510002 	cmp	r1, r2
    557c:	1a0000e8 	bne	5924 <Java_com_geohot_towelroot_TowelRoot_rootTheShit+0x47b4>
    5580:	e3500000 	cmp	r0, #0
    5584:	e30808c7 	movw	r0, #35015	; 0x88c7
    5588:	e3400b33 	movt	r0, #2867	; 0xb33
    558c:	13090525 	movwne	r0, #38181	; 0x9525
    5590:	1344071b 	movtne	r0, #18203	; 0x471b
    5594:	ea0000c4 	b	58ac <Java_com_geohot_towelroot_TowelRoot_rootTheShit+0x473c>
    5598:	e3071f08 	movw	r1, #32520	; 0x7f08
    559c:	e34714c4 	movt	r1, #29892	; 0x74c4
    55a0:	e1500001 	cmp	r0, r1
    55a4:	ca000013 	bgt	55f8 <Java_com_geohot_towelroot_TowelRoot_rootTheShit+0x4488>
    55a8:	e3031d61 	movw	r1, #15713	; 0x3d61
    55ac:	e3a0c000 	mov	ip, #0
    55b0:	e3461a09 	movt	r1, #27145	; 0x6a09
    55b4:	e1500001 	cmp	r0, r1
    55b8:	e3091e8e 	movw	r1, #40590	; 0x9e8e
    55bc:	e3491438 	movt	r1, #37944	; 0x9438
    55c0:	e1a03001 	mov	r3, r1
    55c4:	e3081e01 	movw	r1, #36353	; 0x8e01
    55c8:	e3471f2b 	movt	r1, #32555	; 0x7f2b
    55cc:	e1a02001 	mov	r2, r1
    55d0:	e30b1e56 	movw	r1, #48726	; 0xbe56
    55d4:	e3471fa7 	movt	r1, #32679	; 0x7fa7
    55d8:	e1a0e001 	mov	lr, r1
    55dc:	1afff298 	bne	2044 <Java_com_geohot_towelroot_TowelRoot_rootTheShit+0xed4>
    55e0:	e5960014 	ldr	r0, [r6, #20]
    55e4:	e580c000 	str	ip, [r0]
    55e8:	e5960018 	ldr	r0, [r6, #24]
    55ec:	e580c000 	str	ip, [r0]
    55f0:	e1a0000a 	mov	r0, sl
    55f4:	eafff292 	b	2044 <Java_com_geohot_towelroot_TowelRoot_rootTheShit+0xed4>
    55f8:	e3041ad8 	movw	r1, #19160	; 0x4ad8
    55fc:	e347173d 	movt	r1, #30525	; 0x773d
    5600:	e1500001 	cmp	r0, r1
    5604:	ca000010 	bgt	564c <Java_com_geohot_towelroot_TowelRoot_rootTheShit+0x44dc>
    5608:	e3071f09 	movw	r1, #32521	; 0x7f09
    560c:	e3a0c000 	mov	ip, #0
    5610:	e34714c4 	movt	r1, #29892	; 0x74c4
    5614:	e1500001 	cmp	r0, r1
    5618:	e3091e8e 	movw	r1, #40590	; 0x9e8e
    561c:	e3491438 	movt	r1, #37944	; 0x9438
    5620:	e1a03001 	mov	r3, r1
    5624:	e3081e01 	movw	r1, #36353	; 0x8e01
    5628:	e3471f2b 	movt	r1, #32555	; 0x7f2b
    562c:	e1a02001 	mov	r2, r1
    5630:	e30b1e56 	movw	r1, #48726	; 0xbe56
    5634:	e3471fa7 	movt	r1, #32679	; 0x7fa7
    5638:	e1a0e001 	mov	lr, r1
    563c:	1afff280 	bne	2044 <Java_com_geohot_towelroot_TowelRoot_rootTheShit+0xed4>
    5640:	e30e033d 	movw	r0, #58173	; 0xe33d
    5644:	e3400d7e 	movt	r0, #3454	; 0xd7e
    5648:	eafff27d 	b	2044 <Java_com_geohot_towelroot_TowelRoot_rootTheShit+0xed4>
    564c:	e3041ad9 	movw	r1, #19161	; 0x4ad9
    5650:	e347173d 	movt	r1, #30525	; 0x773d
    5654:	e1500001 	cmp	r0, r1
    5658:	0a00001b 	beq	56cc <Java_com_geohot_towelroot_TowelRoot_rootTheShit+0x455c>
    565c:	e30c188e 	movw	r1, #51342	; 0xc88e
    5660:	e3471d80 	movt	r1, #32128	; 0x7d80
    5664:	e1500001 	cmp	r0, r1
    5668:	1a000030 	bne	5730 <Java_com_geohot_towelroot_TowelRoot_rootTheShit+0x45c0>
    566c:	e24bea02 	sub	lr, fp, #8192	; 0x2000
    5670:	e59f02b4 	ldr	r0, [pc, #692]	; 592c <Java_com_geohot_towelroot_TowelRoot_rootTheShit+0x47bc>
    5674:	e51e116c 	ldr	r1, [lr, #-364]	; 0x16c
    5678:	e24bea02 	sub	lr, fp, #8192	; 0x2000
    567c:	e0801001 	add	r1, r0, r1
    5680:	e59f02a8 	ldr	r0, [pc, #680]	; 5930 <Java_com_geohot_towelroot_TowelRoot_rootTheShit+0x47c0>
    5684:	e51e216c 	ldr	r2, [lr, #-364]	; 0x16c
    5688:	e0802002 	add	r2, r0, r2
    568c:	e3a00004 	mov	r0, #4
    5690:	ebffee26 	bl	f30 <Java_com_geohot_towelroot_TowelRoot_rootTheShit-0x240>
    5694:	e24bea02 	sub	lr, fp, #8192	; 0x2000
    5698:	e59f0294 	ldr	r0, [pc, #660]	; 5934 <Java_com_geohot_towelroot_TowelRoot_rootTheShit+0x47c4>
    569c:	e3a02a01 	mov	r2, #4096	; 0x1000
    56a0:	e51e116c 	ldr	r1, [lr, #-364]	; 0x16c
    56a4:	e7900001 	ldr	r0, [r0, r1]
    56a8:	e5961038 	ldr	r1, [r6, #56]	; 0x38
    56ac:	e5900000 	ldr	r0, [r0]
    56b0:	e5961038 	ldr	r1, [r6, #56]	; 0x38
    56b4:	ebffee62 	bl	1044 <Java_com_geohot_towelroot_TowelRoot_rootTheShit-0x12c>
    56b8:	e5961004 	ldr	r1, [r6, #4]
    56bc:	e5810000 	str	r0, [r1]
    56c0:	e3060e61 	movw	r0, #28257	; 0x6e61
    56c4:	e34f028a 	movt	r0, #62090	; 0xf28a
    56c8:	ea000077 	b	58ac <Java_com_geohot_towelroot_TowelRoot_rootTheShit+0x473c>
    56cc:	e24bea02 	sub	lr, fp, #8192	; 0x2000
    56d0:	e59f0284 	ldr	r0, [pc, #644]	; 595c <Java_com_geohot_towelroot_TowelRoot_rootTheShit+0x47ec>
    56d4:	e51e1164 	ldr	r1, [lr, #-356]	; 0x164
    56d8:	e24bea02 	sub	lr, fp, #8192	; 0x2000
    56dc:	e7900001 	ldr	r0, [r0, r1]
    56e0:	e51e1164 	ldr	r1, [lr, #-356]	; 0x164
    56e4:	e24bea01 	sub	lr, fp, #4096	; 0x1000
    56e8:	e5902000 	ldr	r2, [r0]
    56ec:	e59f0244 	ldr	r0, [pc, #580]	; 5938 <Java_com_geohot_towelroot_TowelRoot_rootTheShit+0x47c8>
    56f0:	e0801001 	add	r1, r0, r1
    56f4:	e24e0028 	sub	r0, lr, #40	; 0x28
    56f8:	ebffee3c 	bl	ff0 <Java_com_geohot_towelroot_TowelRoot_rootTheShit-0x180>
    56fc:	e24bea02 	sub	lr, fp, #8192	; 0x2000
    5700:	e59f0234 	ldr	r0, [pc, #564]	; 593c <Java_com_geohot_towelroot_TowelRoot_rootTheShit+0x47cc>
    5704:	e51e1164 	ldr	r1, [lr, #-356]	; 0x164
    5708:	e24bea01 	sub	lr, fp, #4096	; 0x1000
    570c:	e0801001 	add	r1, r0, r1
    5710:	e24e0028 	sub	r0, lr, #40	; 0x28
    5714:	ebffee38 	bl	ffc <Java_com_geohot_towelroot_TowelRoot_rootTheShit-0x174>
    5718:	e24bea02 	sub	lr, fp, #8192	; 0x2000
    571c:	e305144c 	movw	r1, #21580	; 0x544c
    5720:	e50b0028 	str	r0, [fp, #-40]	; 0x28
    5724:	e3401801 	movt	r1, #2049	; 0x801
    5728:	e50e0170 	str	r0, [lr, #-368]	; 0x170
    572c:	ea000011 	b	5778 <Java_com_geohot_towelroot_TowelRoot_rootTheShit+0x4608>
    5730:	e3041215 	movw	r1, #16917	; 0x4215
    5734:	e3a0c000 	mov	ip, #0
    5738:	e3471d92 	movt	r1, #32146	; 0x7d92
    573c:	e1500001 	cmp	r0, r1
    5740:	e3091e8e 	movw	r1, #40590	; 0x9e8e
    5744:	01a0000a 	moveq	r0, sl
    5748:	e3491438 	movt	r1, #37944	; 0x9438
    574c:	e1a03001 	mov	r3, r1
    5750:	e3081e01 	movw	r1, #36353	; 0x8e01
    5754:	e3471f2b 	movt	r1, #32555	; 0x7f2b
    5758:	e1a02001 	mov	r2, r1
    575c:	e30b1e56 	movw	r1, #48726	; 0xbe56
    5760:	e3471fa7 	movt	r1, #32679	; 0x7fa7
    5764:	e1a0e001 	mov	lr, r1
    5768:	eafff235 	b	2044 <Java_com_geohot_towelroot_TowelRoot_rootTheShit+0xed4>
    576c:	e300176e 	movw	r1, #1902	; 0x76e
    5770:	e50b0024 	str	r0, [fp, #-36]	; 0x24
    5774:	e3401bf6 	movt	r1, #3062	; 0xbf6
    5778:	e305244b 	movw	r2, #21579	; 0x544b
    577c:	e3402801 	movt	r2, #2049	; 0x801
    5780:	e1510002 	cmp	r1, r2
    5784:	ca000006 	bgt	57a4 <Java_com_geohot_towelroot_TowelRoot_rootTheShit+0x4634>
    5788:	e303289c 	movw	r2, #14492	; 0x389c
    578c:	e34a25fa 	movt	r2, #42490	; 0xa5fa
    5790:	e1510002 	cmp	r1, r2
    5794:	e30b1936 	movw	r1, #47414	; 0xb936
    5798:	e34217b0 	movt	r1, #10160	; 0x27b0
    579c:	0afffff5 	beq	5778 <Java_com_geohot_towelroot_TowelRoot_rootTheShit+0x4608>
    57a0:	ea000060 	b	5928 <Java_com_geohot_towelroot_TowelRoot_rootTheShit+0x47b8>
    57a4:	e3052fd8 	movw	r2, #24536	; 0x5fd8
    57a8:	e3452c66 	movt	r2, #23654	; 0x5c66
    57ac:	e1510002 	cmp	r1, r2
    57b0:	ca00000c 	bgt	57e8 <Java_com_geohot_towelroot_TowelRoot_rootTheShit+0x4678>
    57b4:	e305208d 	movw	r2, #20621	; 0x508d
    57b8:	e3442d5c 	movt	r2, #19804	; 0x4d5c
    57bc:	e1510002 	cmp	r1, r2
    57c0:	ca000010 	bgt	5808 <Java_com_geohot_towelroot_TowelRoot_rootTheShit+0x4698>
    57c4:	e305244c 	movw	r2, #21580	; 0x544c
    57c8:	e3402801 	movt	r2, #2049	; 0x801
    57cc:	e1510002 	cmp	r1, r2
    57d0:	0a000021 	beq	585c <Java_com_geohot_towelroot_TowelRoot_rootTheShit+0x46ec>
    57d4:	e30b2936 	movw	r2, #47414	; 0xb936
    57d8:	e34227b0 	movt	r2, #10160	; 0x27b0
    57dc:	e1510002 	cmp	r1, r2
    57e0:	0affffe1 	beq	576c <Java_com_geohot_towelroot_TowelRoot_rootTheShit+0x45fc>
    57e4:	ea000023 	b	5878 <Java_com_geohot_towelroot_TowelRoot_rootTheShit+0x4708>
    57e8:	e3052fd9 	movw	r2, #24537	; 0x5fd9
    57ec:	e3e00000 	mvn	r0, #0
    57f0:	e3452c66 	movt	r2, #23654	; 0x5c66
    57f4:	e1510002 	cmp	r1, r2
    57f8:	e303189c 	movw	r1, #14492	; 0x389c
    57fc:	e34a15fa 	movt	r1, #42490	; 0xa5fa
    5800:	0affffdc 	beq	5778 <Java_com_geohot_towelroot_TowelRoot_rootTheShit+0x4608>
    5804:	ea000047 	b	5928 <Java_com_geohot_towelroot_TowelRoot_rootTheShit+0x47b8>
    5808:	e305008e 	movw	r0, #20622	; 0x508e
    580c:	e3440d5c 	movt	r0, #19804	; 0x4d5c
    5810:	e1510000 	cmp	r1, r0
    5814:	1a000043 	bne	5928 <Java_com_geohot_towelroot_TowelRoot_rootTheShit+0x47b8>
    5818:	e24bea02 	sub	lr, fp, #8192	; 0x2000
    581c:	e3a01001 	mov	r1, #1
    5820:	e24e0028 	sub	r0, lr, #40	; 0x28
    5824:	e24bea02 	sub	lr, fp, #8192	; 0x2000
    5828:	e3a02a01 	mov	r2, #4096	; 0x1000
    582c:	e51e3170 	ldr	r3, [lr, #-368]	; 0x170
    5830:	ebffedf4 	bl	1008 <Java_com_geohot_towelroot_TowelRoot_rootTheShit-0x168>
    5834:	e24bea02 	sub	lr, fp, #8192	; 0x2000
    5838:	e24e0028 	sub	r0, lr, #40	; 0x28
    583c:	e24bea02 	sub	lr, fp, #8192	; 0x2000
    5840:	e51e1168 	ldr	r1, [lr, #-360]	; 0x168
    5844:	ebffedf2 	bl	1014 <Java_com_geohot_towelroot_TowelRoot_rootTheShit-0x15c>
    5848:	e2800019 	add	r0, r0, #25
    584c:	ebffedf3 	bl	1020 <Java_com_geohot_towelroot_TowelRoot_rootTheShit-0x150>
    5850:	e303189c 	movw	r1, #14492	; 0x389c
    5854:	e34a15fa 	movt	r1, #42490	; 0xa5fa
    5858:	eaffffc6 	b	5778 <Java_com_geohot_towelroot_TowelRoot_rootTheShit+0x4608>
    585c:	e51b1028 	ldr	r1, [fp, #-40]	; 0x28
    5860:	e3510000 	cmp	r1, #0
    5864:	e305108e 	movw	r1, #20622	; 0x508e
    5868:	e3441d5c 	movt	r1, #19804	; 0x4d5c
    586c:	03051fd9 	movweq	r1, #24537	; 0x5fd9
    5870:	03451c66 	movteq	r1, #23654	; 0x5c66
    5874:	eaffffbf 	b	5778 <Java_com_geohot_towelroot_TowelRoot_rootTheShit+0x4608>
    5878:	e300076e 	movw	r0, #1902	; 0x76e
    587c:	e3400bf6 	movt	r0, #3062	; 0xbf6
    5880:	e1510000 	cmp	r1, r0
    5884:	1a000027 	bne	5928 <Java_com_geohot_towelroot_TowelRoot_rootTheShit+0x47b8>
    5888:	e51b0024 	ldr	r0, [fp, #-36]	; 0x24
    588c:	e5961008 	ldr	r1, [r6, #8]
    5890:	e5911000 	ldr	r1, [r1]
    5894:	e2811001 	add	r1, r1, #1
    5898:	e1500001 	cmp	r0, r1
    589c:	e3a00000 	mov	r0, #0
    58a0:	13000001 	movwne	r0, #1
    58a4:	e5c6003e 	strb	r0, [r6, #62]	; 0x3e
    58a8:	e1a00009 	mov	r0, r9
    58ac:	e3a0c000 	mov	ip, #0
    58b0:	e3091e8e 	movw	r1, #40590	; 0x9e8e
    58b4:	e3491438 	movt	r1, #37944	; 0x9438
    58b8:	e1a03001 	mov	r3, r1
    58bc:	e3081e01 	movw	r1, #36353	; 0x8e01
    58c0:	e3471f2b 	movt	r1, #32555	; 0x7f2b
    58c4:	e1a02001 	mov	r2, r1
    58c8:	e30b1e56 	movw	r1, #48726	; 0xbe56
    58cc:	e3471fa7 	movt	r1, #32679	; 0x7fa7
    58d0:	e1a0e001 	mov	lr, r1
    58d4:	eafff1da 	b	2044 <Java_com_geohot_towelroot_TowelRoot_rootTheShit+0xed4>
    58d8:	e5960000 	ldr	r0, [r6]
    58dc:	e5900000 	ldr	r0, [r0]
    58e0:	e24bd01c 	sub	sp, fp, #28
    58e4:	e8bd8ff0 	pop	{r4, r5, r6, r7, r8, r9, sl, fp, pc}
    58e8:	eafffffe 	b	58e8 <Java_com_geohot_towelroot_TowelRoot_rootTheShit+0x4778>
    58ec:	eafffffe 	b	58ec <Java_com_geohot_towelroot_TowelRoot_rootTheShit+0x477c>
    58f0:	eafffffe 	b	58f0 <Java_com_geohot_towelroot_TowelRoot_rootTheShit+0x4780>
    58f4:	eafffffe 	b	58f4 <Java_com_geohot_towelroot_TowelRoot_rootTheShit+0x4784>
    58f8:	eafffffe 	b	58f8 <Java_com_geohot_towelroot_TowelRoot_rootTheShit+0x4788>
    58fc:	eafffffe 	b	58fc <Java_com_geohot_towelroot_TowelRoot_rootTheShit+0x478c>
    5900:	eafffffe 	b	5900 <Java_com_geohot_towelroot_TowelRoot_rootTheShit+0x4790>
    5904:	eafffffe 	b	5904 <Java_com_geohot_towelroot_TowelRoot_rootTheShit+0x4794>
    5908:	eafffffe 	b	5908 <Java_com_geohot_towelroot_TowelRoot_rootTheShit+0x4798>
    590c:	eafffffe 	b	590c <Java_com_geohot_towelroot_TowelRoot_rootTheShit+0x479c>
    5910:	eafffffe 	b	5910 <Java_com_geohot_towelroot_TowelRoot_rootTheShit+0x47a0>
    5914:	eafffffe 	b	5914 <Java_com_geohot_towelroot_TowelRoot_rootTheShit+0x47a4>
    5918:	eafffffe 	b	5918 <Java_com_geohot_towelroot_TowelRoot_rootTheShit+0x47a8>
    591c:	eafffffe 	b	591c <Java_com_geohot_towelroot_TowelRoot_rootTheShit+0x47ac>
    5920:	eafffffe 	b	5920 <Java_com_geohot_towelroot_TowelRoot_rootTheShit+0x47b0>
    5924:	eafffffe 	b	5924 <Java_com_geohot_towelroot_TowelRoot_rootTheShit+0x47b4>
    5928:	eafffffe 	b	5928 <Java_com_geohot_towelroot_TowelRoot_rootTheShit+0x47b8>
    592c:	fffe1bcb 			; <UNDEFINED> instruction: 0xfffe1bcb
    5930:	fffe1cbf 			; <UNDEFINED> instruction: 0xfffe1cbf
    5934:	ffffffcc 			; <UNDEFINED> instruction: 0xffffffcc
    5938:	fffe1cc6 			; <UNDEFINED> instruction: 0xfffe1cc6
    593c:	fffe1ce0 			; <UNDEFINED> instruction: 0xfffe1ce0
    5940:	ffffffbc 			; <UNDEFINED> instruction: 0xffffffbc
    5944:	ffffffc8 			; <UNDEFINED> instruction: 0xffffffc8
    5948:	ffffffc4 			; <UNDEFINED> instruction: 0xffffffc4
    594c:	ffffff90 			; <UNDEFINED> instruction: 0xffffff90
    5950:	fffe1c90 			; <UNDEFINED> instruction: 0xfffe1c90
    5954:	ffffffac 			; <UNDEFINED> instruction: 0xffffffac
    5958:	ffffffb0 			; <UNDEFINED> instruction: 0xffffffb0
    595c:	ffffffb8 			; <UNDEFINED> instruction: 0xffffffb8
    5960:	e92d4ff0 	push	{r4, r5, r6, r7, r8, r9, sl, fp, lr}
    5964:	e28db01c 	add	fp, sp, #28
    5968:	e24dd084 	sub	sp, sp, #132	; 0x84
    596c:	e59f0fe4 	ldr	r0, [pc, #4068]	; 6958 <Java_com_geohot_towelroot_TowelRoot_rootTheShit+0x57e8>
    5970:	e3028231 	movw	r8, #8753	; 0x2231
    5974:	e59f1fe0 	ldr	r1, [pc, #4064]	; 695c <Java_com_geohot_towelroot_TowelRoot_rootTheShit+0x57ec>
    5978:	e308e778 	movw	lr, #34680	; 0x8778
    597c:	e08f0000 	add	r0, pc, r0
    5980:	e59fafd8 	ldr	sl, [pc, #4056]	; 6960 <Java_com_geohot_towelroot_TowelRoot_rootTheShit+0x57f0>
    5984:	e0810000 	add	r0, r1, r0
    5988:	e50b0054 	str	r0, [fp, #-84]	; 0x54
    598c:	e59f0fd0 	ldr	r0, [pc, #4048]	; 6964 <Java_com_geohot_towelroot_TowelRoot_rootTheShit+0x57f4>
    5990:	e34d8bd2 	movt	r8, #56274	; 0xdbd2
    5994:	e59f4fcc 	ldr	r4, [pc, #4044]	; 6968 <Java_com_geohot_towelroot_TowelRoot_rootTheShit+0x57f8>
    5998:	e30b7979 	movw	r7, #47481	; 0xb979
    599c:	e08f0000 	add	r0, pc, r0
    59a0:	e59f2fc4 	ldr	r2, [pc, #4036]	; 696c <Java_com_geohot_towelroot_TowelRoot_rootTheShit+0x57fc>
    59a4:	e59f3fc4 	ldr	r3, [pc, #4036]	; 6970 <Java_com_geohot_towelroot_TowelRoot_rootTheShit+0x5800>
    59a8:	e3055e68 	movw	r5, #24168	; 0x5e68
    59ac:	e79a0000 	ldr	r0, [sl, r0]
    59b0:	e30f6f60 	movw	r6, #65376	; 0xff60
    59b4:	e50b0058 	str	r0, [fp, #-88]	; 0x58
    59b8:	e59f0fb4 	ldr	r0, [pc, #4020]	; 6974 <Java_com_geohot_towelroot_TowelRoot_rootTheShit+0x5804>
    59bc:	e30c971f 	movw	r9, #50975	; 0xc71f
    59c0:	e59fcfb0 	ldr	ip, [pc, #4016]	; 6978 <Java_com_geohot_towelroot_TowelRoot_rootTheShit+0x5808>
    59c4:	e34fed3c 	movt	lr, #64828	; 0xfd3c
    59c8:	e08f0000 	add	r0, pc, r0
    59cc:	e59f1fa8 	ldr	r1, [pc, #4008]	; 697c <Java_com_geohot_towelroot_TowelRoot_rootTheShit+0x580c>
    59d0:	e3477df7 	movt	r7, #32247	; 0x7df7
    59d4:	e34754be 	movt	r5, #29886	; 0x74be
    59d8:	e7940000 	ldr	r0, [r4, r0]
    59dc:	e34762ba 	movt	r6, #29370	; 0x72ba
    59e0:	e50b005c 	str	r0, [fp, #-92]	; 0x5c
    59e4:	e59f0f94 	ldr	r0, [pc, #3988]	; 6980 <Java_com_geohot_towelroot_TowelRoot_rootTheShit+0x5810>
    59e8:	e3419502 	movt	r9, #5378	; 0x1502
    59ec:	e08f0000 	add	r0, pc, r0
    59f0:	e0822000 	add	r2, r2, r0
    59f4:	e0830000 	add	r0, r3, r0
    59f8:	e50b0064 	str	r0, [fp, #-100]	; 0x64
    59fc:	e59f0f80 	ldr	r0, [pc, #3968]	; 6984 <Java_com_geohot_towelroot_TowelRoot_rootTheShit+0x5814>
    5a00:	e50b2060 	str	r2, [fp, #-96]	; 0x60
    5a04:	e08f0000 	add	r0, pc, r0
    5a08:	e59f2f78 	ldr	r2, [pc, #3960]	; 6988 <Java_com_geohot_towelroot_TowelRoot_rootTheShit+0x5818>
    5a0c:	e59f3f78 	ldr	r3, [pc, #3960]	; 698c <Java_com_geohot_towelroot_TowelRoot_rootTheShit+0x581c>
    5a10:	e7940000 	ldr	r0, [r4, r0]
    5a14:	e08f2002 	add	r2, pc, r2
    5a18:	e50b0068 	str	r0, [fp, #-104]	; 0x68
    5a1c:	e59f0f6c 	ldr	r0, [pc, #3948]	; 6990 <Java_com_geohot_towelroot_TowelRoot_rootTheShit+0x5820>
    5a20:	e30946d4 	movw	r4, #38612	; 0x96d4
    5a24:	e34c4a9d 	movt	r4, #51869	; 0xca9d
    5a28:	e08f0000 	add	r0, pc, r0
    5a2c:	e79a0000 	ldr	r0, [sl, r0]
    5a30:	e50b006c 	str	r0, [fp, #-108]	; 0x6c
    5a34:	e79c0002 	ldr	r0, [ip, r2]
    5a38:	e50b0070 	str	r0, [fp, #-112]	; 0x70
    5a3c:	e59f0f50 	ldr	r0, [pc, #3920]	; 6994 <Java_com_geohot_towelroot_TowelRoot_rootTheShit+0x5824>
    5a40:	e59f2f50 	ldr	r2, [pc, #3920]	; 6998 <Java_com_geohot_towelroot_TowelRoot_rootTheShit+0x5828>
    5a44:	e08f0000 	add	r0, pc, r0
    5a48:	e7922000 	ldr	r2, [r2, r0]
    5a4c:	e50b2078 	str	r2, [fp, #-120]	; 0x78
    5a50:	e59f2f44 	ldr	r2, [pc, #3908]	; 699c <Java_com_geohot_towelroot_TowelRoot_rootTheShit+0x582c>
    5a54:	e7933000 	ldr	r3, [r3, r0]
    5a58:	e50b3074 	str	r3, [fp, #-116]	; 0x74
    5a5c:	e7920000 	ldr	r0, [r2, r0]
    5a60:	e1a03008 	mov	r3, r8
    5a64:	e50b007c 	str	r0, [fp, #-124]	; 0x7c
    5a68:	e59f0f30 	ldr	r0, [pc, #3888]	; 69a0 <Java_com_geohot_towelroot_TowelRoot_rootTheShit+0x5830>
    5a6c:	e3048ca1 	movw	r8, #19617	; 0x4ca1
    5a70:	e59f2f2c 	ldr	r2, [pc, #3884]	; 69a4 <Java_com_geohot_towelroot_TowelRoot_rootTheShit+0x5834>
    5a74:	e3418c19 	movt	r8, #7193	; 0x1c19
    5a78:	e08f0000 	add	r0, pc, r0
    5a7c:	e7920000 	ldr	r0, [r2, r0]
    5a80:	e50b0080 	str	r0, [fp, #-128]	; 0x80
    5a84:	e59f0f1c 	ldr	r0, [pc, #3868]	; 69a8 <Java_com_geohot_towelroot_TowelRoot_rootTheShit+0x5838>
    5a88:	e08f0000 	add	r0, pc, r0
    5a8c:	e50b0084 	str	r0, [fp, #-132]	; 0x84
    5a90:	e7910000 	ldr	r0, [r1, r0]
    5a94:	e3011f32 	movw	r1, #7986	; 0x1f32
    5a98:	e50b0088 	str	r0, [fp, #-136]	; 0x88
    5a9c:	e59f0f08 	ldr	r0, [pc, #3848]	; 69ac <Java_com_geohot_towelroot_TowelRoot_rootTheShit+0x583c>
    5aa0:	e3461d16 	movt	r1, #27926	; 0x6d16
    5aa4:	e08f0000 	add	r0, pc, r0
    5aa8:	e79a0000 	ldr	r0, [sl, r0]
    5aac:	e50b008c 	str	r0, [fp, #-140]	; 0x8c
    5ab0:	e59f0ef8 	ldr	r0, [pc, #3832]	; 69b0 <Java_com_geohot_towelroot_TowelRoot_rootTheShit+0x5840>
    5ab4:	e08f0000 	add	r0, pc, r0
    5ab8:	e50b0090 	str	r0, [fp, #-144]	; 0x90
    5abc:	e59f0ef0 	ldr	r0, [pc, #3824]	; 69b4 <Java_com_geohot_towelroot_TowelRoot_rootTheShit+0x5844>
    5ac0:	e08f0000 	add	r0, pc, r0
    5ac4:	e79a0000 	ldr	r0, [sl, r0]
    5ac8:	e50b0094 	str	r0, [fp, #-148]	; 0x94
    5acc:	e59f0ee4 	ldr	r0, [pc, #3812]	; 69b8 <Java_com_geohot_towelroot_TowelRoot_rootTheShit+0x5848>
    5ad0:	e08f0000 	add	r0, pc, r0
    5ad4:	e7920000 	ldr	r0, [r2, r0]
    5ad8:	e30d252a 	movw	r2, #54570	; 0xd52a
    5adc:	e50b0098 	str	r0, [fp, #-152]	; 0x98
    5ae0:	e59f0ed4 	ldr	r0, [pc, #3796]	; 69bc <Java_com_geohot_towelroot_TowelRoot_rootTheShit+0x584c>
    5ae4:	e3462b64 	movt	r2, #27492	; 0x6b64
    5ae8:	e08f0000 	add	r0, pc, r0
    5aec:	e79a0000 	ldr	r0, [sl, r0]
    5af0:	e301a8d8 	movw	sl, #6360	; 0x18d8
    5af4:	e50b0050 	str	r0, [fp, #-80]	; 0x50
    5af8:	e59f0fec 	ldr	r0, [pc, #4076]	; 6aec <Java_com_geohot_towelroot_TowelRoot_rootTheShit+0x597c>
    5afc:	e346a010 	movt	sl, #24592	; 0x6010
    5b00:	e08f0000 	add	r0, pc, r0
    5b04:	e79c0000 	ldr	r0, [ip, r0]
    5b08:	e30bc045 	movw	ip, #45125	; 0xb045
    5b0c:	e50b004c 	str	r0, [fp, #-76]	; 0x4c
    5b10:	e1a0000e 	mov	r0, lr
    5b14:	e346c604 	movt	ip, #26116	; 0x6604
    5b18:	e1a0e001 	mov	lr, r1
    5b1c:	ea000003 	b	5b30 <Java_com_geohot_towelroot_TowelRoot_rootTheShit+0x49c0>
    5b20:	e30b197a 	movw	r1, #47482	; 0xb97a
    5b24:	e3471df7 	movt	r1, #32247	; 0x7df7
    5b28:	e1500001 	cmp	r0, r1
    5b2c:	01a00004 	moveq	r0, r4
    5b30:	e1500007 	cmp	r0, r7
    5b34:	cafffff9 	bgt	5b20 <Java_com_geohot_towelroot_TowelRoot_rootTheShit+0x49b0>
    5b38:	e1500005 	cmp	r0, r5
    5b3c:	ca00001f 	bgt	5bc0 <Java_com_geohot_towelroot_TowelRoot_rootTheShit+0x4a50>
    5b40:	e1500006 	cmp	r0, r6
    5b44:	ca000022 	bgt	5bd4 <Java_com_geohot_towelroot_TowelRoot_rootTheShit+0x4a64>
    5b48:	e3011f31 	movw	r1, #7985	; 0x1f31
    5b4c:	e3461d16 	movt	r1, #27926	; 0x6d16
    5b50:	e1500001 	cmp	r0, r1
    5b54:	ca000023 	bgt	5be8 <Java_com_geohot_towelroot_TowelRoot_rootTheShit+0x4a78>
    5b58:	e30d1529 	movw	r1, #54569	; 0xd529
    5b5c:	e3461b64 	movt	r1, #27492	; 0x6b64
    5b60:	e1500001 	cmp	r0, r1
    5b64:	ca000022 	bgt	5bf4 <Java_com_geohot_towelroot_TowelRoot_rootTheShit+0x4a84>
    5b68:	e30b1044 	movw	r1, #45124	; 0xb044
    5b6c:	e3461604 	movt	r1, #26116	; 0x6604
    5b70:	e1500001 	cmp	r0, r1
    5b74:	ca000022 	bgt	5c04 <Java_com_geohot_towelroot_TowelRoot_rootTheShit+0x4a94>
    5b78:	e30118d7 	movw	r1, #6359	; 0x18d7
    5b7c:	e3461010 	movt	r1, #24592	; 0x6010
    5b80:	e1500001 	cmp	r0, r1
    5b84:	ca000021 	bgt	5c10 <Java_com_geohot_towelroot_TowelRoot_rootTheShit+0x4aa0>
    5b88:	e30e14dc 	movw	r1, #58588	; 0xe4dc
    5b8c:	e3451c9b 	movt	r1, #23707	; 0x5c9b
    5b90:	e1500001 	cmp	r0, r1
    5b94:	ca00003f 	bgt	5c98 <Java_com_geohot_towelroot_TowelRoot_rootTheShit+0x4b28>
    5b98:	e3041f24 	movw	r1, #20260	; 0x4f24
    5b9c:	e348126a 	movt	r1, #33386	; 0x826a
    5ba0:	e1500001 	cmp	r0, r1
    5ba4:	ca000040 	bgt	5cac <Java_com_geohot_towelroot_TowelRoot_rootTheShit+0x4b3c>
    5ba8:	e3021a06 	movw	r1, #10758	; 0x2a06
    5bac:	e34811f0 	movt	r1, #33264	; 0x81f0
    5bb0:	e1500001 	cmp	r0, r1
    5bb4:	030e0aba 	movweq	r0, #60090	; 0xeaba
    5bb8:	0349080d 	movteq	r0, #38925	; 0x980d
    5bbc:	eaffffdb 	b	5b30 <Java_com_geohot_towelroot_TowelRoot_rootTheShit+0x49c0>
    5bc0:	e3051e69 	movw	r1, #24169	; 0x5e69
    5bc4:	e34714be 	movt	r1, #29886	; 0x74be
    5bc8:	e1500001 	cmp	r0, r1
    5bcc:	01a00003 	moveq	r0, r3
    5bd0:	eaffffd6 	b	5b30 <Java_com_geohot_towelroot_TowelRoot_rootTheShit+0x49c0>
    5bd4:	e30f1f61 	movw	r1, #65377	; 0xff61
    5bd8:	e34712ba 	movt	r1, #29370	; 0x72ba
    5bdc:	e1500001 	cmp	r0, r1
    5be0:	01a00009 	moveq	r0, r9
    5be4:	eaffffd1 	b	5b30 <Java_com_geohot_towelroot_TowelRoot_rootTheShit+0x49c0>
    5be8:	e150000e 	cmp	r0, lr
    5bec:	01a00008 	moveq	r0, r8
    5bf0:	eaffffce 	b	5b30 <Java_com_geohot_towelroot_TowelRoot_rootTheShit+0x49c0>
    5bf4:	e1500002 	cmp	r0, r2
    5bf8:	051b0048 	ldreq	r0, [fp, #-72]	; 0x48
    5bfc:	01a00004 	moveq	r0, r4
    5c00:	eaffffca 	b	5b30 <Java_com_geohot_towelroot_TowelRoot_rootTheShit+0x49c0>
    5c04:	e150000c 	cmp	r0, ip
    5c08:	1affffc8 	bne	5b30 <Java_com_geohot_towelroot_TowelRoot_rootTheShit+0x49c0>
    5c0c:	ea00031f 	b	6890 <Java_com_geohot_towelroot_TowelRoot_rootTheShit+0x5720>
    5c10:	e150000a 	cmp	r0, sl
    5c14:	1affffc5 	bne	5b30 <Java_com_geohot_towelroot_TowelRoot_rootTheShit+0x49c0>
    5c18:	e3a000e0 	mov	r0, #224	; 0xe0
    5c1c:	e1a08006 	mov	r8, r6
    5c20:	e1a06009 	mov	r6, r9
    5c24:	e1a09003 	mov	r9, r3
    5c28:	e1a0a00c 	mov	sl, ip
    5c2c:	e1a05002 	mov	r5, r2
    5c30:	e1a0400e 	mov	r4, lr
    5c34:	ebffece1 	bl	fc0 <Java_com_geohot_towelroot_TowelRoot_rootTheShit-0x1b0>
    5c38:	e51b104c 	ldr	r1, [fp, #-76]	; 0x4c
    5c3c:	e3a0200c 	mov	r2, #12
    5c40:	e5810000 	str	r0, [r1]
    5c44:	e3a00000 	mov	r0, #0
    5c48:	e3a01000 	mov	r1, #0
    5c4c:	ebffed02 	bl	105c <Java_com_geohot_towelroot_TowelRoot_rootTheShit-0x114>
    5c50:	eb0005ce 	bl	7390 <Java_com_geohot_towelroot_TowelRoot_rootTheShit+0x6220>
    5c54:	e30403ef 	movw	r0, #17391	; 0x43ef
    5c58:	e1a0e004 	mov	lr, r4
    5c5c:	e30946d4 	movw	r4, #38612	; 0x96d4
    5c60:	e1a02005 	mov	r2, r5
    5c64:	e3055e68 	movw	r5, #24168	; 0x5e68
    5c68:	e1a0c00a 	mov	ip, sl
    5c6c:	e301a8d8 	movw	sl, #6360	; 0x18d8
    5c70:	e1a03009 	mov	r3, r9
    5c74:	e1a09006 	mov	r9, r6
    5c78:	e1a06008 	mov	r6, r8
    5c7c:	e3048ca1 	movw	r8, #19617	; 0x4ca1
    5c80:	e34c4a9d 	movt	r4, #51869	; 0xca9d
    5c84:	e3418c19 	movt	r8, #7193	; 0x1c19
    5c88:	e34754be 	movt	r5, #29886	; 0x74be
    5c8c:	e346a010 	movt	sl, #24592	; 0x6010
    5c90:	e3400542 	movt	r0, #1346	; 0x542
    5c94:	eaffffa5 	b	5b30 <Java_com_geohot_towelroot_TowelRoot_rootTheShit+0x49c0>
    5c98:	e30e14dd 	movw	r1, #58589	; 0xe4dd
    5c9c:	e3451c9b 	movt	r1, #23707	; 0x5c9b
    5ca0:	e1500001 	cmp	r0, r1
    5ca4:	1affffa1 	bne	5b30 <Java_com_geohot_towelroot_TowelRoot_rootTheShit+0x49c0>
    5ca8:	ea0000bb 	b	5f9c <Java_com_geohot_towelroot_TowelRoot_rootTheShit+0x4e2c>
    5cac:	e3091071 	movw	r1, #36977	; 0x9071
    5cb0:	e3451b4d 	movt	r1, #23373	; 0x5b4d
    5cb4:	e1500001 	cmp	r0, r1
    5cb8:	ca000028 	bgt	5d60 <Java_com_geohot_towelroot_TowelRoot_rootTheShit+0x4bf0>
    5cbc:	e309124c 	movw	r1, #37452	; 0x924c
    5cc0:	e3451b01 	movt	r1, #23297	; 0x5b01
    5cc4:	e1500001 	cmp	r0, r1
    5cc8:	ca000029 	bgt	5d74 <Java_com_geohot_towelroot_TowelRoot_rootTheShit+0x4c04>
    5ccc:	e30d1048 	movw	r1, #53320	; 0xd048
    5cd0:	e3451a1b 	movt	r1, #23067	; 0x5a1b
    5cd4:	e1500001 	cmp	r0, r1
    5cd8:	ca00002a 	bgt	5d88 <Java_com_geohot_towelroot_TowelRoot_rootTheShit+0x4c18>
    5cdc:	e3081b81 	movw	r1, #35713	; 0x8b81
    5ce0:	e348128b 	movt	r1, #33419	; 0x828b
    5ce4:	e1500001 	cmp	r0, r1
    5ce8:	ca000033 	bgt	5dbc <Java_com_geohot_towelroot_TowelRoot_rootTheShit+0x4c4c>
    5cec:	e3041f25 	movw	r1, #20261	; 0x4f25
    5cf0:	e348126a 	movt	r1, #33386	; 0x826a
    5cf4:	e1500001 	cmp	r0, r1
    5cf8:	1affff8c 	bne	5b30 <Java_com_geohot_towelroot_TowelRoot_rootTheShit+0x49c0>
    5cfc:	e51b0054 	ldr	r0, [fp, #-84]	; 0x54
    5d00:	e1a04006 	mov	r4, r6
    5d04:	e1a06009 	mov	r6, r9
    5d08:	e1a09003 	mov	r9, r3
    5d0c:	e1a0a00c 	mov	sl, ip
    5d10:	e1a05002 	mov	r5, r2
    5d14:	e1a0800e 	mov	r8, lr
    5d18:	ebffecd2 	bl	1068 <Java_com_geohot_towelroot_TowelRoot_rootTheShit-0x108>
    5d1c:	e30904fe 	movw	r0, #38142	; 0x94fe
    5d20:	e1a0e008 	mov	lr, r8
    5d24:	e3048ca1 	movw	r8, #19617	; 0x4ca1
    5d28:	e1a02005 	mov	r2, r5
    5d2c:	e3055e68 	movw	r5, #24168	; 0x5e68
    5d30:	e1a0c00a 	mov	ip, sl
    5d34:	e301a8d8 	movw	sl, #6360	; 0x18d8
    5d38:	e1a03009 	mov	r3, r9
    5d3c:	e1a09006 	mov	r9, r6
    5d40:	e1a06004 	mov	r6, r4
    5d44:	e30946d4 	movw	r4, #38612	; 0x96d4
    5d48:	e3418c19 	movt	r8, #7193	; 0x1c19
    5d4c:	e34c4a9d 	movt	r4, #51869	; 0xca9d
    5d50:	e34754be 	movt	r5, #29886	; 0x74be
    5d54:	e346a010 	movt	sl, #24592	; 0x6010
    5d58:	e3480c14 	movt	r0, #35860	; 0x8c14
    5d5c:	eaffff73 	b	5b30 <Java_com_geohot_towelroot_TowelRoot_rootTheShit+0x49c0>
    5d60:	e3091072 	movw	r1, #36978	; 0x9072
    5d64:	e3451b4d 	movt	r1, #23373	; 0x5b4d
    5d68:	e1500001 	cmp	r0, r1
    5d6c:	1affff6f 	bne	5b30 <Java_com_geohot_towelroot_TowelRoot_rootTheShit+0x49c0>
    5d70:	ea0002f5 	b	694c <Java_com_geohot_towelroot_TowelRoot_rootTheShit+0x57dc>
    5d74:	e309124d 	movw	r1, #37453	; 0x924d
    5d78:	e3451b01 	movt	r1, #23297	; 0x5b01
    5d7c:	e1500001 	cmp	r0, r1
    5d80:	01a0000e 	moveq	r0, lr
    5d84:	eaffff69 	b	5b30 <Java_com_geohot_towelroot_TowelRoot_rootTheShit+0x49c0>
    5d88:	e30d1049 	movw	r1, #53321	; 0xd049
    5d8c:	e3451a1b 	movt	r1, #23067	; 0x5a1b
    5d90:	e1500001 	cmp	r0, r1
    5d94:	1affff65 	bne	5b30 <Java_com_geohot_towelroot_TowelRoot_rootTheShit+0x49c0>
    5d98:	e51b0050 	ldr	r0, [fp, #-80]	; 0x50
    5d9c:	e5900000 	ldr	r0, [r0]
    5da0:	e5900004 	ldr	r0, [r0, #4]
    5da4:	e3500001 	cmp	r0, #1
    5da8:	13000000 	movwne	r0, #0
    5dac:	e54b0026 	strb	r0, [fp, #-38]	; 0x26
    5db0:	e30c0c01 	movw	r0, #52225	; 0xcc01
    5db4:	e34d0c34 	movt	r0, #56372	; 0xdc34
    5db8:	eaffff5c 	b	5b30 <Java_com_geohot_towelroot_TowelRoot_rootTheShit+0x49c0>
    5dbc:	e30118e1 	movw	r1, #6369	; 0x18e1
    5dc0:	e348135c 	movt	r1, #33628	; 0x835c
    5dc4:	e1500001 	cmp	r0, r1
    5dc8:	ca000004 	bgt	5de0 <Java_com_geohot_towelroot_TowelRoot_rootTheShit+0x4c70>
    5dcc:	e3081b82 	movw	r1, #35714	; 0x8b82
    5dd0:	e348128b 	movt	r1, #33419	; 0x828b
    5dd4:	e1500001 	cmp	r0, r1
    5dd8:	1affff54 	bne	5b30 <Java_com_geohot_towelroot_TowelRoot_rootTheShit+0x49c0>
    5ddc:	ea000034 	b	5eb4 <Java_com_geohot_towelroot_TowelRoot_rootTheShit+0x4d44>
    5de0:	e30c18b6 	movw	r1, #51382	; 0xc8b6
    5de4:	e3481404 	movt	r1, #33796	; 0x8404
    5de8:	e1500001 	cmp	r0, r1
    5dec:	ca000004 	bgt	5e04 <Java_com_geohot_towelroot_TowelRoot_rootTheShit+0x4c94>
    5df0:	e30118e2 	movw	r1, #6370	; 0x18e2
    5df4:	e348135c 	movt	r1, #33628	; 0x835c
    5df8:	e1500001 	cmp	r0, r1
    5dfc:	1affff4b 	bne	5b30 <Java_com_geohot_towelroot_TowelRoot_rootTheShit+0x49c0>
    5e00:	ea00009c 	b	6078 <Java_com_geohot_towelroot_TowelRoot_rootTheShit+0x4f08>
    5e04:	e30b1930 	movw	r1, #47408	; 0xb930
    5e08:	e3481438 	movt	r1, #33848	; 0x8438
    5e0c:	e1500001 	cmp	r0, r1
    5e10:	ca000004 	bgt	5e28 <Java_com_geohot_towelroot_TowelRoot_rootTheShit+0x4cb8>
    5e14:	e30c18b7 	movw	r1, #51383	; 0xc8b7
    5e18:	e3481404 	movt	r1, #33796	; 0x8404
    5e1c:	e1500001 	cmp	r0, r1
    5e20:	1affff42 	bne	5b30 <Java_com_geohot_towelroot_TowelRoot_rootTheShit+0x49c0>
    5e24:	ea000467 	b	6fc8 <Java_com_geohot_towelroot_TowelRoot_rootTheShit+0x5e58>
    5e28:	e30d1fd1 	movw	r1, #57297	; 0xdfd1
    5e2c:	e348153a 	movt	r1, #34106	; 0x853a
    5e30:	e1500001 	cmp	r0, r1
    5e34:	ca00000c 	bgt	5e6c <Java_com_geohot_towelroot_TowelRoot_rootTheShit+0x4cfc>
    5e38:	e30b1931 	movw	r1, #47409	; 0xb931
    5e3c:	e3481438 	movt	r1, #33848	; 0x8438
    5e40:	e1500001 	cmp	r0, r1
    5e44:	1affff39 	bne	5b30 <Java_com_geohot_towelroot_TowelRoot_rootTheShit+0x49c0>
    5e48:	e51b0058 	ldr	r0, [fp, #-88]	; 0x58
    5e4c:	e5900000 	ldr	r0, [r0]
    5e50:	e5900008 	ldr	r0, [r0, #8]
    5e54:	e3500000 	cmp	r0, #0
    5e58:	e3070b9f 	movw	r0, #31647	; 0x7b9f
    5e5c:	e34b0d15 	movt	r0, #48405	; 0xbd15
    5e60:	03080e1d 	movweq	r0, #36381	; 0x8e1d
    5e64:	034e0a68 	movteq	r0, #60008	; 0xea68
    5e68:	eaffff30 	b	5b30 <Java_com_geohot_towelroot_TowelRoot_rootTheShit+0x49c0>
    5e6c:	e3001d70 	movw	r1, #3440	; 0xd70
    5e70:	e3481804 	movt	r1, #34820	; 0x8804
    5e74:	e1500001 	cmp	r0, r1
    5e78:	ca000005 	bgt	5e94 <Java_com_geohot_towelroot_TowelRoot_rootTheShit+0x4d24>
    5e7c:	e30d1fd2 	movw	r1, #57298	; 0xdfd2
    5e80:	e348153a 	movt	r1, #34106	; 0x853a
    5e84:	e1500001 	cmp	r0, r1
    5e88:	0304044f 	movweq	r0, #17487	; 0x444f
    5e8c:	034202e5 	movteq	r0, #8933	; 0x22e5
    5e90:	eaffff26 	b	5b30 <Java_com_geohot_towelroot_TowelRoot_rootTheShit+0x49c0>
    5e94:	e3041e41 	movw	r1, #20033	; 0x4e41
    5e98:	e3481a3d 	movt	r1, #35389	; 0x8a3d
    5e9c:	e1500001 	cmp	r0, r1
    5ea0:	ca000006 	bgt	5ec0 <Java_com_geohot_towelroot_TowelRoot_rootTheShit+0x4d50>
    5ea4:	e3001d71 	movw	r1, #3441	; 0xd71
    5ea8:	e3481804 	movt	r1, #34820	; 0x8804
    5eac:	e1500001 	cmp	r0, r1
    5eb0:	1affff1e 	bne	5b30 <Java_com_geohot_towelroot_TowelRoot_rootTheShit+0x49c0>
    5eb4:	e30d0049 	movw	r0, #53321	; 0xd049
    5eb8:	e3450a1b 	movt	r0, #23067	; 0x5a1b
    5ebc:	eaffff1b 	b	5b30 <Java_com_geohot_towelroot_TowelRoot_rootTheShit+0x49c0>
    5ec0:	e30914fd 	movw	r1, #38141	; 0x94fd
    5ec4:	e3481c14 	movt	r1, #35860	; 0x8c14
    5ec8:	e1500001 	cmp	r0, r1
    5ecc:	ca000012 	bgt	5f1c <Java_com_geohot_towelroot_TowelRoot_rootTheShit+0x4dac>
    5ed0:	e3041e42 	movw	r1, #20034	; 0x4e42
    5ed4:	e3481a3d 	movt	r1, #35389	; 0x8a3d
    5ed8:	e1500001 	cmp	r0, r1
    5edc:	1affff13 	bne	5b30 <Java_com_geohot_towelroot_TowelRoot_rootTheShit+0x49c0>
